Component: ARM Compiler 5.06 update 6 (build 750) Tool: armlink [4d35ed]

==============================================================================

Section Cross References

    startup_stm32f40_41xxx.o(RESET) refers to startup_stm32f40_41xxx.o(STACK) for __initial_sp
    startup_stm32f40_41xxx.o(RESET) refers to startup_stm32f40_41xxx.o(.text) for Reset_Handler
    startup_stm32f40_41xxx.o(RESET) refers to stm32f4xx_it.o(i.NMI_Handler) for NMI_Handler
    startup_stm32f40_41xxx.o(RESET) refers to stm32f4xx_it.o(i.HardFault_Handler) for HardFault_Handler
    startup_stm32f40_41xxx.o(RESET) refers to stm32f4xx_it.o(i.MemManage_Handler) for MemManage_Handler
    startup_stm32f40_41xxx.o(RESET) refers to stm32f4xx_it.o(i.BusFault_Handler) for BusFault_Handler
    startup_stm32f40_41xxx.o(RESET) refers to stm32f4xx_it.o(i.UsageFault_Handler) for UsageFault_Handler
    startup_stm32f40_41xxx.o(RESET) refers to port.o(.emb_text) for SVC_Handler
    startup_stm32f40_41xxx.o(RESET) refers to stm32f4xx_it.o(i.DebugMon_Handler) for DebugMon_Handler
    startup_stm32f40_41xxx.o(RESET) refers to port.o(i.SysTick_Handler) for SysTick_Handler
    startup_stm32f40_41xxx.o(RESET) refers to rtc.o(i.RTC_WKUP_IRQHandler) for RTC_WKUP_IRQHandler
    startup_stm32f40_41xxx.o(RESET) refers to usart2.o(i.USART1_IRQHandler) for USART1_IRQHandler
    startup_stm32f40_41xxx.o(RESET) refers to usart.o(i.USART2_IRQHandler) for USART2_IRQHandler
    startup_stm32f40_41xxx.o(RESET) refers to usart2.o(i.USART3_IRQHandler) for USART3_IRQHandler
    startup_stm32f40_41xxx.o(.text) refers to system_stm32f4xx.o(i.SystemInit) for SystemInit
    startup_stm32f40_41xxx.o(.text) refers to entry.o(.ARM.Collect$$$$00000000) for __main
    stm32f4xx_rcc.o(i.RCC_GetClocksFreq) refers to stm32f4xx_rcc.o(.data) for APBAHBPrescTable
    stm32f4xx_rcc.o(i.RCC_WaitForHSEStartUp) refers to stm32f4xx_rcc.o(i.RCC_GetFlagStatus) for RCC_GetFlagStatus
    stm32f4xx_gpio.o(i.GPIO_DeInit) refers to stm32f4xx_rcc.o(i.RCC_AHB1PeriphResetCmd) for RCC_AHB1PeriphResetCmd
    stm32f4xx_tim.o(i.TIM_DeInit) refers to stm32f4xx_rcc.o(i.RCC_APB2PeriphResetCmd) for RCC_APB2PeriphResetCmd
    stm32f4xx_tim.o(i.TIM_DeInit) refers to stm32f4xx_rcc.o(i.RCC_APB1PeriphResetCmd) for RCC_APB1PeriphResetCmd
    stm32f4xx_tim.o(i.TIM_ETRClockMode1Config) refers to stm32f4xx_tim.o(i.TIM_ETRConfig) for TIM_ETRConfig
    stm32f4xx_tim.o(i.TIM_ETRClockMode2Config) refers to stm32f4xx_tim.o(i.TIM_ETRConfig) for TIM_ETRConfig
    stm32f4xx_tim.o(i.TIM_ICInit) refers to stm32f4xx_tim.o(i.TI1_Config) for TI1_Config
    stm32f4xx_tim.o(i.TIM_ICInit) refers to stm32f4xx_tim.o(i.TIM_SetIC1Prescaler) for TIM_SetIC1Prescaler
    stm32f4xx_tim.o(i.TIM_ICInit) refers to stm32f4xx_tim.o(i.TI2_Config) for TI2_Config
    stm32f4xx_tim.o(i.TIM_ICInit) refers to stm32f4xx_tim.o(i.TIM_SetIC2Prescaler) for TIM_SetIC2Prescaler
    stm32f4xx_tim.o(i.TIM_ICInit) refers to stm32f4xx_tim.o(i.TI3_Config) for TI3_Config
    stm32f4xx_tim.o(i.TIM_ICInit) refers to stm32f4xx_tim.o(i.TIM_SetIC3Prescaler) for TIM_SetIC3Prescaler
    stm32f4xx_tim.o(i.TIM_ICInit) refers to stm32f4xx_tim.o(i.TI4_Config) for TI4_Config
    stm32f4xx_tim.o(i.TIM_ICInit) refers to stm32f4xx_tim.o(i.TIM_SetIC4Prescaler) for TIM_SetIC4Prescaler
    stm32f4xx_tim.o(i.TIM_ITRxExternalClockConfig) refers to stm32f4xx_tim.o(i.TIM_SelectInputTrigger) for TIM_SelectInputTrigger
    stm32f4xx_tim.o(i.TIM_PWMIConfig) refers to stm32f4xx_tim.o(i.TI1_Config) for TI1_Config
    stm32f4xx_tim.o(i.TIM_PWMIConfig) refers to stm32f4xx_tim.o(i.TIM_SetIC1Prescaler) for TIM_SetIC1Prescaler
    stm32f4xx_tim.o(i.TIM_PWMIConfig) refers to stm32f4xx_tim.o(i.TI2_Config) for TI2_Config
    stm32f4xx_tim.o(i.TIM_PWMIConfig) refers to stm32f4xx_tim.o(i.TIM_SetIC2Prescaler) for TIM_SetIC2Prescaler
    stm32f4xx_tim.o(i.TIM_TIxExternalClockConfig) refers to stm32f4xx_tim.o(i.TI2_Config) for TI2_Config
    stm32f4xx_tim.o(i.TIM_TIxExternalClockConfig) refers to stm32f4xx_tim.o(i.TI1_Config) for TI1_Config
    stm32f4xx_tim.o(i.TIM_TIxExternalClockConfig) refers to stm32f4xx_tim.o(i.TIM_SelectInputTrigger) for TIM_SelectInputTrigger
    stm32f4xx_wwdg.o(i.WWDG_DeInit) refers to stm32f4xx_rcc.o(i.RCC_APB1PeriphResetCmd) for RCC_APB1PeriphResetCmd
    stm32f4xx_usart.o(i.USART_DeInit) refers to stm32f4xx_rcc.o(i.RCC_APB2PeriphResetCmd) for RCC_APB2PeriphResetCmd
    stm32f4xx_usart.o(i.USART_DeInit) refers to stm32f4xx_rcc.o(i.RCC_APB1PeriphResetCmd) for RCC_APB1PeriphResetCmd
    stm32f4xx_usart.o(i.USART_Init) refers to stm32f4xx_rcc.o(i.RCC_GetClocksFreq) for RCC_GetClocksFreq
    stm32f4xx_spi.o(i.SPI_I2S_DeInit) refers to stm32f4xx_rcc.o(i.RCC_APB2PeriphResetCmd) for RCC_APB2PeriphResetCmd
    stm32f4xx_spi.o(i.SPI_I2S_DeInit) refers to stm32f4xx_rcc.o(i.RCC_APB1PeriphResetCmd) for RCC_APB1PeriphResetCmd
    stm32f4xx_rtc.o(i.RTC_CoarseCalibCmd) refers to stm32f4xx_rtc.o(i.RTC_EnterInitMode) for RTC_EnterInitMode
    stm32f4xx_rtc.o(i.RTC_CoarseCalibCmd) refers to stm32f4xx_rtc.o(i.RTC_ExitInitMode) for RTC_ExitInitMode
    stm32f4xx_rtc.o(i.RTC_CoarseCalibConfig) refers to stm32f4xx_rtc.o(i.RTC_EnterInitMode) for RTC_EnterInitMode
    stm32f4xx_rtc.o(i.RTC_CoarseCalibConfig) refers to stm32f4xx_rtc.o(i.RTC_ExitInitMode) for RTC_ExitInitMode
    stm32f4xx_rtc.o(i.RTC_DeInit) refers to stm32f4xx_rtc.o(i.RTC_EnterInitMode) for RTC_EnterInitMode
    stm32f4xx_rtc.o(i.RTC_DeInit) refers to stm32f4xx_rtc.o(i.RTC_WaitForSynchro) for RTC_WaitForSynchro
    stm32f4xx_rtc.o(i.RTC_GetAlarm) refers to stm32f4xx_rtc.o(i.RTC_Bcd2ToByte) for RTC_Bcd2ToByte
    stm32f4xx_rtc.o(i.RTC_GetDate) refers to stm32f4xx_rtc.o(i.RTC_Bcd2ToByte) for RTC_Bcd2ToByte
    stm32f4xx_rtc.o(i.RTC_GetTime) refers to stm32f4xx_rtc.o(i.RTC_Bcd2ToByte) for RTC_Bcd2ToByte
    stm32f4xx_rtc.o(i.RTC_GetTimeStamp) refers to stm32f4xx_rtc.o(i.RTC_Bcd2ToByte) for RTC_Bcd2ToByte
    stm32f4xx_rtc.o(i.RTC_Init) refers to stm32f4xx_rtc.o(i.RTC_EnterInitMode) for RTC_EnterInitMode
    stm32f4xx_rtc.o(i.RTC_Init) refers to stm32f4xx_rtc.o(i.RTC_ExitInitMode) for RTC_ExitInitMode
    stm32f4xx_rtc.o(i.RTC_RefClockCmd) refers to stm32f4xx_rtc.o(i.RTC_EnterInitMode) for RTC_EnterInitMode
    stm32f4xx_rtc.o(i.RTC_RefClockCmd) refers to stm32f4xx_rtc.o(i.RTC_ExitInitMode) for RTC_ExitInitMode
    stm32f4xx_rtc.o(i.RTC_SetAlarm) refers to stm32f4xx_rtc.o(i.RTC_Bcd2ToByte) for RTC_Bcd2ToByte
    stm32f4xx_rtc.o(i.RTC_SetAlarm) refers to stm32f4xx_rtc.o(i.RTC_ByteToBcd2) for RTC_ByteToBcd2
    stm32f4xx_rtc.o(i.RTC_SetDate) refers to stm32f4xx_rtc.o(i.RTC_Bcd2ToByte) for RTC_Bcd2ToByte
    stm32f4xx_rtc.o(i.RTC_SetDate) refers to stm32f4xx_rtc.o(i.RTC_ByteToBcd2) for RTC_ByteToBcd2
    stm32f4xx_rtc.o(i.RTC_SetDate) refers to stm32f4xx_rtc.o(i.RTC_EnterInitMode) for RTC_EnterInitMode
    stm32f4xx_rtc.o(i.RTC_SetDate) refers to stm32f4xx_rtc.o(i.RTC_ExitInitMode) for RTC_ExitInitMode
    stm32f4xx_rtc.o(i.RTC_SetDate) refers to stm32f4xx_rtc.o(i.RTC_WaitForSynchro) for RTC_WaitForSynchro
    stm32f4xx_rtc.o(i.RTC_SetTime) refers to stm32f4xx_rtc.o(i.RTC_Bcd2ToByte) for RTC_Bcd2ToByte
    stm32f4xx_rtc.o(i.RTC_SetTime) refers to stm32f4xx_rtc.o(i.RTC_ByteToBcd2) for RTC_ByteToBcd2
    stm32f4xx_rtc.o(i.RTC_SetTime) refers to stm32f4xx_rtc.o(i.RTC_EnterInitMode) for RTC_EnterInitMode
    stm32f4xx_rtc.o(i.RTC_SetTime) refers to stm32f4xx_rtc.o(i.RTC_ExitInitMode) for RTC_ExitInitMode
    stm32f4xx_rtc.o(i.RTC_SetTime) refers to stm32f4xx_rtc.o(i.RTC_WaitForSynchro) for RTC_WaitForSynchro
    stm32f4xx_rtc.o(i.RTC_SynchroShiftConfig) refers to stm32f4xx_rtc.o(i.RTC_WaitForSynchro) for RTC_WaitForSynchro
    stm32f4xx_pwr.o(i.PWR_DeInit) refers to stm32f4xx_rcc.o(i.RCC_APB1PeriphResetCmd) for RCC_APB1PeriphResetCmd
    stm32f4xx_i2c.o(i.I2C_DeInit) refers to stm32f4xx_rcc.o(i.RCC_APB1PeriphResetCmd) for RCC_APB1PeriphResetCmd
    stm32f4xx_i2c.o(i.I2C_Init) refers to stm32f4xx_rcc.o(i.RCC_GetClocksFreq) for RCC_GetClocksFreq
    stm32f4xx_adc.o(i.ADC_DeInit) refers to stm32f4xx_rcc.o(i.RCC_APB2PeriphResetCmd) for RCC_APB2PeriphResetCmd
    adc.o(i.DHT11_Config) refers to stm32f4xx_rcc.o(i.RCC_AHB1PeriphClockCmd) for RCC_AHB1PeriphClockCmd
    adc.o(i.DHT11_Config) refers to stm32f4xx_gpio.o(i.GPIO_Init) for GPIO_Init
    adc.o(i.DHT11_Config) refers to stm32f4xx_gpio.o(i.GPIO_SetBits) for GPIO_SetBits
    adc.o(i.DHT11_GetACK) refers to adc.o(i.DHT11_SetPinInputMode) for DHT11_SetPinInputMode
    adc.o(i.DHT11_GetACK) refers to delay.o(i.delay_us) for delay_us
    adc.o(i.DHT11_GetACK) refers to stm32f4xx_gpio.o(i.GPIO_ReadInputDataBit) for GPIO_ReadInputDataBit
    adc.o(i.DHT11_GetValue) refers to adc.o(i.DHT11_StartSignal) for DHT11_StartSignal
    adc.o(i.DHT11_GetValue) refers to adc.o(i.DHT11_GetACK) for DHT11_GetACK
    adc.o(i.DHT11_GetValue) refers to adc.o(i.DHT11_ReadBit) for DHT11_ReadBit
    adc.o(i.DHT11_ReadBit) refers to delay.o(i.delay_us) for delay_us
    adc.o(i.DHT11_ReadBit) refers to stm32f4xx_gpio.o(i.GPIO_ReadInputDataBit) for GPIO_ReadInputDataBit
    adc.o(i.DHT11_SetPinInputMode) refers to stm32f4xx_rcc.o(i.RCC_AHB1PeriphClockCmd) for RCC_AHB1PeriphClockCmd
    adc.o(i.DHT11_SetPinInputMode) refers to stm32f4xx_gpio.o(i.GPIO_Init) for GPIO_Init
    adc.o(i.DHT11_SetPinOutputMode) refers to stm32f4xx_rcc.o(i.RCC_AHB1PeriphClockCmd) for RCC_AHB1PeriphClockCmd
    adc.o(i.DHT11_SetPinOutputMode) refers to stm32f4xx_gpio.o(i.GPIO_Init) for GPIO_Init
    adc.o(i.DHT11_StartSignal) refers to adc.o(i.DHT11_SetPinOutputMode) for DHT11_SetPinOutputMode
    adc.o(i.DHT11_StartSignal) refers to stm32f4xx_gpio.o(i.GPIO_SetBits) for GPIO_SetBits
    adc.o(i.DHT11_StartSignal) refers to stm32f4xx_gpio.o(i.GPIO_ResetBits) for GPIO_ResetBits
    adc.o(i.DHT11_StartSignal) refers to delay.o(i.delay_ms) for delay_ms
    adc.o(i.DHT11_StartSignal) refers to delay.o(i.delay_us) for delay_us
    adc.o(i.Fire_Config) refers to stm32f4xx_rcc.o(i.RCC_APB2PeriphClockCmd) for RCC_APB2PeriphClockCmd
    adc.o(i.Fire_Config) refers to stm32f4xx_rcc.o(i.RCC_AHB1PeriphClockCmd) for RCC_AHB1PeriphClockCmd
    adc.o(i.Fire_Config) refers to stm32f4xx_gpio.o(i.GPIO_Init) for GPIO_Init
    adc.o(i.Fire_Config) refers to stm32f4xx_adc.o(i.ADC_CommonInit) for ADC_CommonInit
    adc.o(i.Fire_Config) refers to stm32f4xx_adc.o(i.ADC_Init) for ADC_Init
    adc.o(i.Fire_Config) refers to stm32f4xx_adc.o(i.ADC_RegularChannelConfig) for ADC_RegularChannelConfig
    adc.o(i.Fire_Config) refers to stm32f4xx_adc.o(i.ADC_Cmd) for ADC_Cmd
    adc.o(i.LightSensor_Config) refers to stm32f4xx_rcc.o(i.RCC_APB2PeriphClockCmd) for RCC_APB2PeriphClockCmd
    adc.o(i.LightSensor_Config) refers to stm32f4xx_rcc.o(i.RCC_AHB1PeriphClockCmd) for RCC_AHB1PeriphClockCmd
    adc.o(i.LightSensor_Config) refers to stm32f4xx_gpio.o(i.GPIO_Init) for GPIO_Init
    adc.o(i.LightSensor_Config) refers to stm32f4xx_adc.o(i.ADC_CommonInit) for ADC_CommonInit
    adc.o(i.LightSensor_Config) refers to stm32f4xx_adc.o(i.ADC_Init) for ADC_Init
    adc.o(i.LightSensor_Config) refers to stm32f4xx_adc.o(i.ADC_RegularChannelConfig) for ADC_RegularChannelConfig
    adc.o(i.LightSensor_Config) refers to stm32f4xx_adc.o(i.ADC_Cmd) for ADC_Cmd
    adc.o(i.Smog_Config) refers to stm32f4xx_rcc.o(i.RCC_APB2PeriphClockCmd) for RCC_APB2PeriphClockCmd
    adc.o(i.Smog_Config) refers to stm32f4xx_rcc.o(i.RCC_AHB1PeriphClockCmd) for RCC_AHB1PeriphClockCmd
    adc.o(i.Smog_Config) refers to stm32f4xx_gpio.o(i.GPIO_Init) for GPIO_Init
    adc.o(i.Smog_Config) refers to stm32f4xx_adc.o(i.ADC_CommonInit) for ADC_CommonInit
    adc.o(i.Smog_Config) refers to stm32f4xx_adc.o(i.ADC_Init) for ADC_Init
    adc.o(i.Smog_Config) refers to stm32f4xx_adc.o(i.ADC_RegularChannelConfig) for ADC_RegularChannelConfig
    adc.o(i.Smog_Config) refers to stm32f4xx_adc.o(i.ADC_Cmd) for ADC_Cmd
    cjson.o(i.cJSON_AddItemReferenceToArray) refers to cjson.o(i.create_reference) for create_reference
    cjson.o(i.cJSON_AddItemReferenceToArray) refers to cjson.o(i.cJSON_AddItemToArray) for cJSON_AddItemToArray
    cjson.o(i.cJSON_AddItemReferenceToArray) refers to cjson.o(.data) for global_hooks
    cjson.o(i.cJSON_AddItemReferenceToObject) refers to cjson.o(i.create_reference) for create_reference
    cjson.o(i.cJSON_AddItemReferenceToObject) refers to cjson.o(i.cJSON_AddItemToObject) for cJSON_AddItemToObject
    cjson.o(i.cJSON_AddItemReferenceToObject) refers to cjson.o(.data) for global_hooks
    cjson.o(i.cJSON_AddItemToArray) refers to cjson.o(i.suffix_object) for suffix_object
    cjson.o(i.cJSON_AddItemToObject) refers to cjson.o(i.cJSON_strdup) for cJSON_strdup
    cjson.o(i.cJSON_AddItemToObject) refers to cjson.o(i.cJSON_AddItemToObjectCS) for cJSON_AddItemToObjectCS
    cjson.o(i.cJSON_AddItemToObject) refers to cjson.o(.data) for global_hooks
    cjson.o(i.cJSON_AddItemToObjectCS) refers to cjson.o(i.cJSON_AddItemToArray) for cJSON_AddItemToArray
    cjson.o(i.cJSON_AddItemToObjectCS) refers to cjson.o(.data) for global_hooks
    cjson.o(i.cJSON_Compare) refers to cjson.o(i.cJSON_IsInvalid) for cJSON_IsInvalid
    cjson.o(i.cJSON_Compare) refers to cdcmple.o(.text) for __aeabi_cdcmpeq
    cjson.o(i.cJSON_Compare) refers to strcmp.o(.text) for strcmp
    cjson.o(i.cJSON_Compare) refers to cjson.o(i.get_object_item) for get_object_item
    cjson.o(i.cJSON_CreateArray) refers to cjson.o(i.cJSON_New_Item) for cJSON_New_Item
    cjson.o(i.cJSON_CreateArray) refers to cjson.o(.data) for global_hooks
    cjson.o(i.cJSON_CreateBool) refers to cjson.o(i.cJSON_New_Item) for cJSON_New_Item
    cjson.o(i.cJSON_CreateBool) refers to cjson.o(.data) for global_hooks
    cjson.o(i.cJSON_CreateDoubleArray) refers to cjson.o(i.cJSON_CreateArray) for cJSON_CreateArray
    cjson.o(i.cJSON_CreateDoubleArray) refers to cjson.o(i.cJSON_CreateNumber) for cJSON_CreateNumber
    cjson.o(i.cJSON_CreateDoubleArray) refers to cjson.o(i.cJSON_Delete) for cJSON_Delete
    cjson.o(i.cJSON_CreateDoubleArray) refers to cjson.o(i.suffix_object) for suffix_object
    cjson.o(i.cJSON_CreateFalse) refers to cjson.o(i.cJSON_New_Item) for cJSON_New_Item
    cjson.o(i.cJSON_CreateFalse) refers to cjson.o(.data) for global_hooks
    cjson.o(i.cJSON_CreateFloatArray) refers to cjson.o(i.cJSON_CreateArray) for cJSON_CreateArray
    cjson.o(i.cJSON_CreateFloatArray) refers to f2d.o(.text) for __aeabi_f2d
    cjson.o(i.cJSON_CreateFloatArray) refers to cjson.o(i.cJSON_CreateNumber) for cJSON_CreateNumber
    cjson.o(i.cJSON_CreateFloatArray) refers to cjson.o(i.cJSON_Delete) for cJSON_Delete
    cjson.o(i.cJSON_CreateFloatArray) refers to cjson.o(i.suffix_object) for suffix_object
    cjson.o(i.cJSON_CreateIntArray) refers to cjson.o(i.cJSON_CreateArray) for cJSON_CreateArray
    cjson.o(i.cJSON_CreateIntArray) refers to dflti.o(.text) for __aeabi_i2d
    cjson.o(i.cJSON_CreateIntArray) refers to cjson.o(i.cJSON_CreateNumber) for cJSON_CreateNumber
    cjson.o(i.cJSON_CreateIntArray) refers to cjson.o(i.cJSON_Delete) for cJSON_Delete
    cjson.o(i.cJSON_CreateIntArray) refers to cjson.o(i.suffix_object) for suffix_object
    cjson.o(i.cJSON_CreateNull) refers to cjson.o(i.cJSON_New_Item) for cJSON_New_Item
    cjson.o(i.cJSON_CreateNull) refers to cjson.o(.data) for global_hooks
    cjson.o(i.cJSON_CreateNumber) refers to cjson.o(i.cJSON_New_Item) for cJSON_New_Item
    cjson.o(i.cJSON_CreateNumber) refers to cdrcmple.o(.text) for __aeabi_cdrcmple
    cjson.o(i.cJSON_CreateNumber) refers to cdcmple.o(.text) for __aeabi_cdcmple
    cjson.o(i.cJSON_CreateNumber) refers to dfixi.o(.text) for __aeabi_d2iz
    cjson.o(i.cJSON_CreateNumber) refers to cjson.o(.data) for global_hooks
    cjson.o(i.cJSON_CreateObject) refers to cjson.o(i.cJSON_New_Item) for cJSON_New_Item
    cjson.o(i.cJSON_CreateObject) refers to cjson.o(.data) for global_hooks
    cjson.o(i.cJSON_CreateRaw) refers to cjson.o(i.cJSON_New_Item) for cJSON_New_Item
    cjson.o(i.cJSON_CreateRaw) refers to cjson.o(i.cJSON_strdup) for cJSON_strdup
    cjson.o(i.cJSON_CreateRaw) refers to cjson.o(i.cJSON_Delete) for cJSON_Delete
    cjson.o(i.cJSON_CreateRaw) refers to cjson.o(.data) for global_hooks
    cjson.o(i.cJSON_CreateString) refers to cjson.o(i.cJSON_New_Item) for cJSON_New_Item
    cjson.o(i.cJSON_CreateString) refers to cjson.o(i.cJSON_strdup) for cJSON_strdup
    cjson.o(i.cJSON_CreateString) refers to cjson.o(i.cJSON_Delete) for cJSON_Delete
    cjson.o(i.cJSON_CreateString) refers to cjson.o(.data) for global_hooks
    cjson.o(i.cJSON_CreateStringArray) refers to cjson.o(i.cJSON_CreateArray) for cJSON_CreateArray
    cjson.o(i.cJSON_CreateStringArray) refers to cjson.o(i.cJSON_CreateString) for cJSON_CreateString
    cjson.o(i.cJSON_CreateStringArray) refers to cjson.o(i.cJSON_Delete) for cJSON_Delete
    cjson.o(i.cJSON_CreateStringArray) refers to cjson.o(i.suffix_object) for suffix_object
    cjson.o(i.cJSON_CreateTrue) refers to cjson.o(i.cJSON_New_Item) for cJSON_New_Item
    cjson.o(i.cJSON_CreateTrue) refers to cjson.o(.data) for global_hooks
    cjson.o(i.cJSON_Delete) refers to cjson.o(.data) for global_hooks
    cjson.o(i.cJSON_DeleteItemFromArray) refers to cjson.o(i.cJSON_DetachItemFromArray) for cJSON_DetachItemFromArray
    cjson.o(i.cJSON_DeleteItemFromArray) refers to cjson.o(i.cJSON_Delete) for cJSON_Delete
    cjson.o(i.cJSON_DeleteItemFromObject) refers to cjson.o(i.cJSON_DetachItemFromObject) for cJSON_DetachItemFromObject
    cjson.o(i.cJSON_DeleteItemFromObject) refers to cjson.o(i.cJSON_Delete) for cJSON_Delete
    cjson.o(i.cJSON_DeleteItemFromObjectCaseSensitive) refers to cjson.o(i.cJSON_DetachItemFromObjectCaseSensitive) for cJSON_DetachItemFromObjectCaseSensitive
    cjson.o(i.cJSON_DeleteItemFromObjectCaseSensitive) refers to cjson.o(i.cJSON_Delete) for cJSON_Delete
    cjson.o(i.cJSON_DetachItemFromArray) refers to cjson.o(i.get_array_item) for get_array_item
    cjson.o(i.cJSON_DetachItemFromArray) refers to cjson.o(i.cJSON_DetachItemViaPointer) for cJSON_DetachItemViaPointer
    cjson.o(i.cJSON_DetachItemFromObject) refers to cjson.o(i.cJSON_GetObjectItem) for cJSON_GetObjectItem
    cjson.o(i.cJSON_DetachItemFromObject) refers to cjson.o(i.cJSON_DetachItemViaPointer) for cJSON_DetachItemViaPointer
    cjson.o(i.cJSON_DetachItemFromObjectCaseSensitive) refers to cjson.o(i.cJSON_GetObjectItemCaseSensitive) for cJSON_GetObjectItemCaseSensitive
    cjson.o(i.cJSON_DetachItemFromObjectCaseSensitive) refers to cjson.o(i.cJSON_DetachItemViaPointer) for cJSON_DetachItemViaPointer
    cjson.o(i.cJSON_Duplicate) refers to cjson.o(i.cJSON_New_Item) for cJSON_New_Item
    cjson.o(i.cJSON_Duplicate) refers to cjson.o(i.cJSON_strdup) for cJSON_strdup
    cjson.o(i.cJSON_Duplicate) refers to cjson.o(i.cJSON_Delete) for cJSON_Delete
    cjson.o(i.cJSON_Duplicate) refers to cjson.o(.data) for global_hooks
    cjson.o(i.cJSON_GetArrayItem) refers to cjson.o(i.get_array_item) for get_array_item
    cjson.o(i.cJSON_GetErrorPtr) refers to cjson.o(.data) for global_error
    cjson.o(i.cJSON_GetObjectItem) refers to cjson.o(i.get_object_item) for get_object_item
    cjson.o(i.cJSON_GetObjectItemCaseSensitive) refers to cjson.o(i.get_object_item) for get_object_item
    cjson.o(i.cJSON_HasObjectItem) refers to cjson.o(i.cJSON_GetObjectItem) for cJSON_GetObjectItem
    cjson.o(i.cJSON_InitHooks) refers to mallocr.o(i.__malloc$realloc) for malloc
    cjson.o(i.cJSON_InitHooks) refers to cjson.o(.data) for global_hooks
    cjson.o(i.cJSON_InitHooks) refers to mallocr.o(i.__free$realloc) for free
    cjson.o(i.cJSON_InitHooks) refers to mallocr.o(i.realloc) for realloc
    cjson.o(i.cJSON_InsertItemInArray) refers to cjson.o(i.get_array_item) for get_array_item
    cjson.o(i.cJSON_InsertItemInArray) refers to cjson.o(i.cJSON_AddItemToArray) for cJSON_AddItemToArray
    cjson.o(i.cJSON_New_Item) refers to memseta.o(.text) for memset
    cjson.o(i.cJSON_Parse) refers to cjson.o(i.cJSON_ParseWithOpts) for cJSON_ParseWithOpts
    cjson.o(i.cJSON_ParseWithOpts) refers to memseta.o(.text) for __aeabi_memclr4
    cjson.o(i.cJSON_ParseWithOpts) refers to strlen.o(.text) for strlen
    cjson.o(i.cJSON_ParseWithOpts) refers to cjson.o(i.cJSON_New_Item) for cJSON_New_Item
    cjson.o(i.cJSON_ParseWithOpts) refers to cjson.o(i.buffer_skip_whitespace) for buffer_skip_whitespace
    cjson.o(i.cJSON_ParseWithOpts) refers to cjson.o(i.parse_value) for parse_value
    cjson.o(i.cJSON_ParseWithOpts) refers to cjson.o(i.cJSON_Delete) for cJSON_Delete
    cjson.o(i.cJSON_ParseWithOpts) refers to cjson.o(.data) for global_error
    cjson.o(i.cJSON_Print) refers to cjson.o(i.print) for print
    cjson.o(i.cJSON_Print) refers to cjson.o(.data) for global_hooks
    cjson.o(i.cJSON_PrintBuffered) refers to memseta.o(.text) for __aeabi_memclr4
    cjson.o(i.cJSON_PrintBuffered) refers to cjson.o(i.print_value) for print_value
    cjson.o(i.cJSON_PrintBuffered) refers to cjson.o(.data) for global_hooks
    cjson.o(i.cJSON_PrintPreallocated) refers to memseta.o(.text) for __aeabi_memclr4
    cjson.o(i.cJSON_PrintPreallocated) refers to cjson.o(i.print_value) for print_value
    cjson.o(i.cJSON_PrintPreallocated) refers to cjson.o(.data) for global_hooks
    cjson.o(i.cJSON_PrintUnformatted) refers to cjson.o(i.print) for print
    cjson.o(i.cJSON_PrintUnformatted) refers to cjson.o(.data) for global_hooks
    cjson.o(i.cJSON_ReplaceItemInArray) refers to cjson.o(i.get_array_item) for get_array_item
    cjson.o(i.cJSON_ReplaceItemInArray) refers to cjson.o(i.cJSON_ReplaceItemViaPointer) for cJSON_ReplaceItemViaPointer
    cjson.o(i.cJSON_ReplaceItemInObject) refers to cjson.o(i.replace_item_in_object) for replace_item_in_object
    cjson.o(i.cJSON_ReplaceItemInObjectCaseSensitive) refers to cjson.o(i.replace_item_in_object) for replace_item_in_object
    cjson.o(i.cJSON_ReplaceItemViaPointer) refers to cjson.o(i.cJSON_Delete) for cJSON_Delete
    cjson.o(i.cJSON_SetNumberHelper) refers to cdrcmple.o(.text) for __aeabi_cdrcmple
    cjson.o(i.cJSON_SetNumberHelper) refers to cdcmple.o(.text) for __aeabi_cdcmple
    cjson.o(i.cJSON_SetNumberHelper) refers to dfixi.o(.text) for __aeabi_d2iz
    cjson.o(i.cJSON_Version) refers to printfa.o(i.__0sprintf) for sprintf
    cjson.o(i.cJSON_Version) refers to cjson.o(.bss) for version
    cjson.o(i.cJSON_free) refers to cjson.o(.data) for global_hooks
    cjson.o(i.cJSON_malloc) refers to cjson.o(.data) for global_hooks
    cjson.o(i.cJSON_strdup) refers to strlen.o(.text) for strlen
    cjson.o(i.cJSON_strdup) refers to memcpy.o(.text) for memcpy
    cjson.o(i.case_insensitive_strcmp) refers to tolower.o(.text) for tolower
    cjson.o(i.create_reference) refers to cjson.o(i.cJSON_New_Item) for cJSON_New_Item
    cjson.o(i.create_reference) refers to memcpy.o(.text) for memcpy
    cjson.o(i.ensure) refers to memcpy.o(.text) for memcpy
    cjson.o(i.get_decimal_point) refers to localeconv.o(.text) for localeconv
    cjson.o(i.get_object_item) refers to strcmp.o(.text) for strcmp
    cjson.o(i.get_object_item) refers to cjson.o(i.case_insensitive_strcmp) for case_insensitive_strcmp
    cjson.o(i.parse_array) refers to cjson.o(i.buffer_skip_whitespace) for buffer_skip_whitespace
    cjson.o(i.parse_array) refers to cjson.o(i.cJSON_New_Item) for cJSON_New_Item
    cjson.o(i.parse_array) refers to cjson.o(i.parse_value) for parse_value
    cjson.o(i.parse_array) refers to cjson.o(i.cJSON_Delete) for cJSON_Delete
    cjson.o(i.parse_number) refers to cjson.o(i.get_decimal_point) for get_decimal_point
    cjson.o(i.parse_number) refers to strtod.o(i.strtod) for strtod
    cjson.o(i.parse_number) refers to cdrcmple.o(.text) for __aeabi_cdrcmple
    cjson.o(i.parse_number) refers to cdcmple.o(.text) for __aeabi_cdcmple
    cjson.o(i.parse_number) refers to dfixi.o(.text) for __aeabi_d2iz
    cjson.o(i.parse_object) refers to cjson.o(i.buffer_skip_whitespace) for buffer_skip_whitespace
    cjson.o(i.parse_object) refers to cjson.o(i.cJSON_New_Item) for cJSON_New_Item
    cjson.o(i.parse_object) refers to cjson.o(i.parse_string) for parse_string
    cjson.o(i.parse_object) refers to cjson.o(i.parse_value) for parse_value
    cjson.o(i.parse_object) refers to cjson.o(i.cJSON_Delete) for cJSON_Delete
    cjson.o(i.parse_string) refers to cjson.o(i.utf16_literal_to_utf8) for utf16_literal_to_utf8
    cjson.o(i.parse_value) refers to strncmp.o(.text) for strncmp
    cjson.o(i.parse_value) refers to cjson.o(i.parse_string) for parse_string
    cjson.o(i.parse_value) refers to cjson.o(i.parse_number) for parse_number
    cjson.o(i.parse_value) refers to cjson.o(i.parse_array) for parse_array
    cjson.o(i.parse_value) refers to cjson.o(i.parse_object) for parse_object
    cjson.o(i.print) refers to memseta.o(.text) for memset
    cjson.o(i.print) refers to cjson.o(i.print_value) for print_value
    cjson.o(i.print) refers to cjson.o(i.update_offset) for update_offset
    cjson.o(i.print) refers to memcpy.o(.text) for memcpy
    cjson.o(i.print_array) refers to cjson.o(i.ensure) for ensure
    cjson.o(i.print_array) refers to cjson.o(i.print_value) for print_value
    cjson.o(i.print_array) refers to cjson.o(i.update_offset) for update_offset
    cjson.o(i.print_number) refers to cjson.o(i.get_decimal_point) for get_decimal_point
    cjson.o(i.print_number) refers to dmul.o(.text) for __aeabi_dmul
    cjson.o(i.print_number) refers to cdcmple.o(.text) for __aeabi_cdcmpeq
    cjson.o(i.print_number) refers to printfa.o(i.__0sprintf) for sprintf
    cjson.o(i.print_number) refers to sscanf.o(.text) for sscanf
    cjson.o(i.print_number) refers to cjson.o(i.ensure) for ensure
    cjson.o(i.print_object) refers to cjson.o(i.ensure) for ensure
    cjson.o(i.print_object) refers to cjson.o(i.print_string_ptr) for print_string_ptr
    cjson.o(i.print_object) refers to cjson.o(i.update_offset) for update_offset
    cjson.o(i.print_object) refers to cjson.o(i.print_value) for print_value
    cjson.o(i.print_string) refers to cjson.o(i.print_string_ptr) for print_string_ptr
    cjson.o(i.print_string_ptr) refers to cjson.o(i.ensure) for ensure
    cjson.o(i.print_string_ptr) refers to strcpy.o(.text) for strcpy
    cjson.o(i.print_string_ptr) refers to memcpy.o(.text) for memcpy
    cjson.o(i.print_string_ptr) refers to printfa.o(i.__0sprintf) for sprintf
    cjson.o(i.print_value) refers to cjson.o(i.ensure) for ensure
    cjson.o(i.print_value) refers to strcpy.o(.text) for strcpy
    cjson.o(i.print_value) refers to cjson.o(i.print_number) for print_number
    cjson.o(i.print_value) refers to strlen.o(.text) for strlen
    cjson.o(i.print_value) refers to memcpy.o(.text) for memcpy
    cjson.o(i.print_value) refers to cjson.o(i.print_string) for print_string
    cjson.o(i.print_value) refers to cjson.o(i.print_array) for print_array
    cjson.o(i.print_value) refers to cjson.o(i.print_object) for print_object
    cjson.o(i.replace_item_in_object) refers to cjson.o(i.cJSON_free) for cJSON_free
    cjson.o(i.replace_item_in_object) refers to cjson.o(i.cJSON_strdup) for cJSON_strdup
    cjson.o(i.replace_item_in_object) refers to cjson.o(i.get_object_item) for get_object_item
    cjson.o(i.replace_item_in_object) refers to cjson.o(i.cJSON_ReplaceItemViaPointer) for cJSON_ReplaceItemViaPointer
    cjson.o(i.replace_item_in_object) refers to cjson.o(.data) for global_hooks
    cjson.o(i.update_offset) refers to strlen.o(.text) for strlen
    cjson.o(i.utf16_literal_to_utf8) refers to cjson.o(i.parse_hex4) for parse_hex4
    cjson.o(.data) refers to mallocr.o(i.__malloc$realloc) for malloc
    cjson.o(.data) refers to mallocr.o(i.__free$realloc) for free
    cjson.o(.data) refers to mallocr.o(i.realloc) for realloc
    esp8266.o(i.Esp8266_Init) refers to esp8266.o(i.esp8266_exit_transparent_transmission) for esp8266_exit_transparent_transmission
    esp8266.o(i.Esp8266_Init) refers to printfa.o(i.__0printf) for __2printf
    esp8266.o(i.Esp8266_Init) refers to delay.o(i.delay_ms) for delay_ms
    esp8266.o(i.Esp8266_Init) refers to esp8266.o(i.esp8266_reset) for esp8266_reset
    esp8266.o(i.Esp8266_Init) refers to esp8266.o(i.esp8266_check) for esp8266_check
    esp8266.o(i.Esp8266_Init) refers to esp8266.o(i.esp8266_enable_echo) for esp8266_enable_echo
    esp8266.o(i.Esp8266_Init) refers to esp8266.o(i.esp8266_connect_ap) for esp8266_connect_ap
    esp8266.o(i.USART3_sendlenth) refers to stm32f4xx_usart.o(i.USART_SendData) for USART_SendData
    esp8266.o(i.USART3_sendlenth) refers to stm32f4xx_usart.o(i.USART_GetFlagStatus) for USART_GetFlagStatus
    esp8266.o(i.USART3_sendstr) refers to stm32f4xx_usart.o(i.USART_SendData) for USART_SendData
    esp8266.o(i.USART3_sendstr) refers to stm32f4xx_usart.o(i.USART_GetFlagStatus) for USART_GetFlagStatus
    esp8266.o(i.Wifi_Init) refers to esp8266.o(i.USART3_sendstr) for USART3_sendstr
    esp8266.o(i.Wifi_Init) refers to delay.o(i.delay_ms) for delay_ms
    esp8266.o(i.Wifi_Init) refers to printfa.o(i.__0printf) for __2printf
    esp8266.o(i.esp8266_check) refers to esp8266.o(i.esp8266_send_at) for esp8266_send_at
    esp8266.o(i.esp8266_check) refers to esp8266.o(i.esp8266_find_str_in_rx_packet) for esp8266_find_str_in_rx_packet
    esp8266.o(i.esp8266_check_connection_status) refers to esp8266.o(i.esp8266_send_at) for esp8266_send_at
    esp8266.o(i.esp8266_check_connection_status) refers to esp8266.o(i.esp8266_find_str_in_rx_packet) for esp8266_find_str_in_rx_packet
    esp8266.o(i.esp8266_close_server) refers to memseta.o(.text) for __aeabi_memclr4
    esp8266.o(i.esp8266_close_server) refers to printfa.o(i.__0sprintf) for __2sprintf
    esp8266.o(i.esp8266_close_server) refers to esp8266.o(i.esp8266_send_at) for esp8266_send_at
    esp8266.o(i.esp8266_close_server) refers to esp8266.o(i.esp8266_find_str_in_rx_packet) for esp8266_find_str_in_rx_packet
    esp8266.o(i.esp8266_connect_ap) refers to esp8266.o(i.esp8266_send_at) for esp8266_send_at
    esp8266.o(i.esp8266_connect_ap) refers to esp8266.o(i.esp8266_find_str_in_rx_packet) for esp8266_find_str_in_rx_packet
    esp8266.o(i.esp8266_connect_server) refers to esp8266.o(i.esp8266_send_at) for esp8266_send_at
    esp8266.o(i.esp8266_connect_server) refers to printfa.o(i.__0sprintf) for __2sprintf
    esp8266.o(i.esp8266_connect_server) refers to esp8266.o(i.esp8266_find_str_in_rx_packet) for esp8266_find_str_in_rx_packet
    esp8266.o(i.esp8266_create_server) refers to memseta.o(.text) for __aeabi_memclr4
    esp8266.o(i.esp8266_create_server) refers to printfa.o(i.__0sprintf) for __2sprintf
    esp8266.o(i.esp8266_create_server) refers to esp8266.o(i.esp8266_send_at) for esp8266_send_at
    esp8266.o(i.esp8266_create_server) refers to esp8266.o(i.esp8266_find_str_in_rx_packet) for esp8266_find_str_in_rx_packet
    esp8266.o(i.esp8266_disconnect_server) refers to esp8266.o(i.esp8266_send_at) for esp8266_send_at
    esp8266.o(i.esp8266_disconnect_server) refers to esp8266.o(i.esp8266_find_str_in_rx_packet) for esp8266_find_str_in_rx_packet
    esp8266.o(i.esp8266_enable_echo) refers to esp8266.o(i.esp8266_send_at) for esp8266_send_at
    esp8266.o(i.esp8266_enable_echo) refers to esp8266.o(i.esp8266_find_str_in_rx_packet) for esp8266_find_str_in_rx_packet
    esp8266.o(i.esp8266_enable_multiple_id) refers to memseta.o(.text) for __aeabi_memclr4
    esp8266.o(i.esp8266_enable_multiple_id) refers to printfa.o(i.__0sprintf) for __2sprintf
    esp8266.o(i.esp8266_enable_multiple_id) refers to esp8266.o(i.esp8266_send_at) for esp8266_send_at
    esp8266.o(i.esp8266_enable_multiple_id) refers to esp8266.o(i.esp8266_find_str_in_rx_packet) for esp8266_find_str_in_rx_packet
    esp8266.o(i.esp8266_entry_transparent_transmission) refers to esp8266.o(i.esp8266_send_at) for esp8266_send_at
    esp8266.o(i.esp8266_entry_transparent_transmission) refers to esp8266.o(i.esp8266_find_str_in_rx_packet) for esp8266_find_str_in_rx_packet
    esp8266.o(i.esp8266_entry_transparent_transmission) refers to delay.o(i.delay_ms) for delay_ms
    esp8266.o(i.esp8266_entry_transparent_transmission) refers to esp8266.o(.data) for esp8266_transparent_transmission_sta
    esp8266.o(i.esp8266_exit_transparent_transmission) refers to esp8266.o(i.esp8266_send_at) for esp8266_send_at
    esp8266.o(i.esp8266_exit_transparent_transmission) refers to delay.o(i.delay_ms) for delay_ms
    esp8266.o(i.esp8266_exit_transparent_transmission) refers to esp8266.o(.data) for esp8266_transparent_transmission_sta
    esp8266.o(i.esp8266_find_str_in_rx_packet) refers to delay.o(i.delay_ms) for delay_ms
    esp8266.o(i.esp8266_find_str_in_rx_packet) refers to strstr.o(.text) for strstr
    esp8266.o(i.esp8266_find_str_in_rx_packet) refers to usart2.o(.bss) for Rx3Buffer
    esp8266.o(i.esp8266_init) refers to usart2.o(i.USART3_Config) for USART3_Config
    esp8266.o(i.esp8266_reset) refers to esp8266.o(i.esp8266_send_at) for esp8266_send_at
    esp8266.o(i.esp8266_reset) refers to esp8266.o(i.esp8266_find_str_in_rx_packet) for esp8266_find_str_in_rx_packet
    esp8266.o(i.esp8266_send_at) refers to memseta.o(.text) for __aeabi_memclr
    esp8266.o(i.esp8266_send_at) refers to usart2.o(i.Usart_SendString) for Usart_SendString
    esp8266.o(i.esp8266_send_at) refers to usart2.o(.bss) for Rx3Buffer
    esp8266.o(i.esp8266_send_at) refers to usart2.o(.data) for Rx3Counter
    esp8266.o(i.esp8266_send_bytes) refers to usart2.o(i.Usart_SendBytes) for Usart_SendBytes
    esp8266.o(i.esp8266_send_str) refers to usart2.o(i.Usart_SendString) for Usart_SendString
    esp8266.o(i.wifisend) refers to printfa.o(i.__0sprintf) for __2sprintf
    esp8266.o(i.wifisend) refers to esp8266.o(i.USART3_sendstr) for USART3_sendstr
    esp8266.o(i.wifisend) refers to delay.o(i.delay_ms) for delay_ms
    i2c.o(i.IIC_Config) refers to stm32f4xx_rcc.o(i.RCC_AHB1PeriphClockCmd) for RCC_AHB1PeriphClockCmd
    i2c.o(i.IIC_Config) refers to stm32f4xx_gpio.o(i.GPIO_Init) for GPIO_Init
    i2c.o(i.IIC_Config) refers to stm32f4xx_gpio.o(i.GPIO_SetBits) for GPIO_SetBits
    i2c.o(i.IIC_MasterSendAck) refers to i2c.o(i.IIC_SDASetOutputMode) for IIC_SDASetOutputMode
    i2c.o(i.IIC_MasterSendAck) refers to stm32f4xx_gpio.o(i.GPIO_SetBits) for GPIO_SetBits
    i2c.o(i.IIC_MasterSendAck) refers to stm32f4xx_gpio.o(i.GPIO_ResetBits) for GPIO_ResetBits
    i2c.o(i.IIC_MasterSendAck) refers to delay.o(i.delay_us) for delay_us
    i2c.o(i.IIC_ReadByte) refers to i2c.o(i.IIC_SDASetInputMode) for IIC_SDASetInputMode
    i2c.o(i.IIC_ReadByte) refers to stm32f4xx_gpio.o(i.GPIO_ResetBits) for GPIO_ResetBits
    i2c.o(i.IIC_ReadByte) refers to delay.o(i.delay_us) for delay_us
    i2c.o(i.IIC_ReadByte) refers to stm32f4xx_gpio.o(i.GPIO_SetBits) for GPIO_SetBits
    i2c.o(i.IIC_ReadByte) refers to stm32f4xx_gpio.o(i.GPIO_ReadInputDataBit) for GPIO_ReadInputDataBit
    i2c.o(i.IIC_SDASetInputMode) refers to stm32f4xx_rcc.o(i.RCC_AHB1PeriphClockCmd) for RCC_AHB1PeriphClockCmd
    i2c.o(i.IIC_SDASetInputMode) refers to stm32f4xx_gpio.o(i.GPIO_Init) for GPIO_Init
    i2c.o(i.IIC_SDASetOutputMode) refers to stm32f4xx_rcc.o(i.RCC_AHB1PeriphClockCmd) for RCC_AHB1PeriphClockCmd
    i2c.o(i.IIC_SDASetOutputMode) refers to stm32f4xx_gpio.o(i.GPIO_Init) for GPIO_Init
    i2c.o(i.IIC_SendByte) refers to i2c.o(i.IIC_SDASetOutputMode) for IIC_SDASetOutputMode
    i2c.o(i.IIC_SendByte) refers to stm32f4xx_gpio.o(i.GPIO_ResetBits) for GPIO_ResetBits
    i2c.o(i.IIC_SendByte) refers to delay.o(i.delay_us) for delay_us
    i2c.o(i.IIC_SendByte) refers to stm32f4xx_gpio.o(i.GPIO_SetBits) for GPIO_SetBits
    i2c.o(i.IIC_Start) refers to i2c.o(i.IIC_SDASetOutputMode) for IIC_SDASetOutputMode
    i2c.o(i.IIC_Start) refers to stm32f4xx_gpio.o(i.GPIO_SetBits) for GPIO_SetBits
    i2c.o(i.IIC_Start) refers to delay.o(i.delay_us) for delay_us
    i2c.o(i.IIC_Start) refers to stm32f4xx_gpio.o(i.GPIO_ResetBits) for GPIO_ResetBits
    i2c.o(i.IIC_Stop) refers to i2c.o(i.IIC_SDASetOutputMode) for IIC_SDASetOutputMode
    i2c.o(i.IIC_Stop) refers to stm32f4xx_gpio.o(i.GPIO_ResetBits) for GPIO_ResetBits
    i2c.o(i.IIC_Stop) refers to delay.o(i.delay_us) for delay_us
    i2c.o(i.IIC_Stop) refers to stm32f4xx_gpio.o(i.GPIO_SetBits) for GPIO_SetBits
    i2c.o(i.IIC_WaitSlaveAck) refers to i2c.o(i.IIC_SDASetInputMode) for IIC_SDASetInputMode
    i2c.o(i.IIC_WaitSlaveAck) refers to stm32f4xx_gpio.o(i.GPIO_SetBits) for GPIO_SetBits
    i2c.o(i.IIC_WaitSlaveAck) refers to delay.o(i.delay_us) for delay_us
    i2c.o(i.IIC_WaitSlaveAck) refers to stm32f4xx_gpio.o(i.GPIO_ReadInputDataBit) for GPIO_ReadInputDataBit
    i2c.o(i.IIC_WaitSlaveAck) refers to stm32f4xx_gpio.o(i.GPIO_ResetBits) for GPIO_ResetBits
    led.o(i.BEEP_Init) refers to stm32f4xx_rcc.o(i.RCC_AHB1PeriphClockCmd) for RCC_AHB1PeriphClockCmd
    led.o(i.BEEP_Init) refers to stm32f4xx_gpio.o(i.GPIO_Init) for GPIO_Init
    led.o(i.KEY_Init) refers to stm32f4xx_rcc.o(i.RCC_AHB1PeriphClockCmd) for RCC_AHB1PeriphClockCmd
    led.o(i.KEY_Init) refers to stm32f4xx_gpio.o(i.GPIO_Init) for GPIO_Init
    led.o(i.LED_Init) refers to stm32f4xx_rcc.o(i.RCC_AHB1PeriphClockCmd) for RCC_AHB1PeriphClockCmd
    led.o(i.LED_Init) refers to stm32f4xx_gpio.o(i.GPIO_Init) for GPIO_Init
    led.o(i.LED_Init) refers to stm32f4xx_gpio.o(i.GPIO_SetBits) for GPIO_SetBits
    motor.o(i.FanConfig) refers to stm32f4xx_rcc.o(i.RCC_APB2PeriphClockCmd) for RCC_APB2PeriphClockCmd
    motor.o(i.FanConfig) refers to stm32f4xx_rcc.o(i.RCC_AHB1PeriphClockCmd) for RCC_AHB1PeriphClockCmd
    motor.o(i.FanConfig) refers to stm32f4xx_gpio.o(i.GPIO_Init) for GPIO_Init
    motor.o(i.FanConfig) refers to stm32f4xx_gpio.o(i.GPIO_PinAFConfig) for GPIO_PinAFConfig
    motor.o(i.FanConfig) refers to stm32f4xx_tim.o(i.TIM_TimeBaseInit) for TIM_TimeBaseInit
    motor.o(i.FanConfig) refers to stm32f4xx_tim.o(i.TIM_OC1Init) for TIM_OC1Init
    motor.o(i.FanConfig) refers to stm32f4xx_tim.o(i.TIM_CtrlPWMOutputs) for TIM_CtrlPWMOutputs
    motor.o(i.FanConfig) refers to stm32f4xx_tim.o(i.TIM_ARRPreloadConfig) for TIM_ARRPreloadConfig
    motor.o(i.FanConfig) refers to stm32f4xx_tim.o(i.TIM_Cmd) for TIM_Cmd
    motor.o(i.FanConfig) refers to motor.o(.data) for GPIO_InitStructure
    motor.o(i.FanConfig) refers to motor.o(.bss) for TIM_TimeBaseStructure
    motor.o(i.FanInit) refers to stm32f4xx_rcc.o(i.RCC_AHB1PeriphClockCmd) for RCC_AHB1PeriphClockCmd
    motor.o(i.FanInit) refers to stm32f4xx_gpio.o(i.GPIO_Init) for GPIO_Init
    motor.o(i.FanInit) refers to stm32f4xx_gpio.o(i.GPIO_ResetBits) for GPIO_ResetBits
    motor.o(i.MotorStop) refers to stm32f4xx_gpio.o(i.GPIO_ResetBits) for GPIO_ResetBits
    motor.o(i.Motor_Config) refers to stm32f4xx_rcc.o(i.RCC_AHB1PeriphClockCmd) for RCC_AHB1PeriphClockCmd
    motor.o(i.Motor_Config) refers to stm32f4xx_gpio.o(i.GPIO_Init) for GPIO_Init
    motor.o(i.Motorcw1) refers to stm32f4xx_gpio.o(i.GPIO_SetBits) for GPIO_SetBits
    motor.o(i.Motorcw1) refers to stm32f4xx_gpio.o(i.GPIO_ResetBits) for GPIO_ResetBits
    motor.o(i.Motorcw1) refers to delay.o(i.delay_ms) for delay_ms
    motor.o(i.Motorcw2) refers to stm32f4xx_gpio.o(i.GPIO_SetBits) for GPIO_SetBits
    motor.o(i.Motorcw2) refers to stm32f4xx_gpio.o(i.GPIO_ResetBits) for GPIO_ResetBits
    motor.o(i.Motorcw2) refers to delay.o(i.delay_ms) for delay_ms
    mqtt.o(i.Mqtt_Connect_Aliyun) refers to esp8266.o(i.esp8266_connect_server) for esp8266_connect_server
    mqtt.o(i.Mqtt_Connect_Aliyun) refers to printfa.o(i.__0printf) for __2printf
    mqtt.o(i.Mqtt_Connect_Aliyun) refers to delay.o(i.delay_ms) for delay_ms
    mqtt.o(i.Mqtt_Connect_Aliyun) refers to esp8266.o(i.esp8266_check_connection_status) for esp8266_check_connection_status
    mqtt.o(i.Mqtt_Connect_Aliyun) refers to esp8266.o(i.Esp8266_Init) for Esp8266_Init
    mqtt.o(i.Mqtt_Connect_Aliyun) refers to esp8266.o(i.esp8266_entry_transparent_transmission) for esp8266_entry_transparent_transmission
    mqtt.o(i.Mqtt_Connect_Aliyun) refers to mqtt.o(i.mqtt_connect) for mqtt_connect
    mqtt.o(i.Mqtt_Connect_Aliyun) refers to mqtt.o(i.mqtt_subscribe_topic) for mqtt_subscribe_topic
    mqtt.o(i.Mqtt_Connect_Aliyun) refers to mqtt.o(.conststring) for .conststring
    mqtt.o(i.mqtt_cjson_parse) refers to cjson.o(i.cJSON_Parse) for cJSON_Parse
    mqtt.o(i.mqtt_cjson_parse) refers to cjson.o(i.cJSON_Delete) for cJSON_Delete
    mqtt.o(i.mqtt_cjson_parse) refers to cjson.o(i.cJSON_GetErrorPtr) for cJSON_GetErrorPtr
    mqtt.o(i.mqtt_cjson_parse) refers to printfa.o(i.__0printf) for __2printf
    mqtt.o(i.mqtt_cjson_parse) refers to cjson.o(i.cJSON_GetObjectItem) for cJSON_GetObjectItem
    mqtt.o(i.mqtt_cjson_parse) refers to stm32f4xx_gpio.o(i.GPIO_SetBits) for GPIO_SetBits
    mqtt.o(i.mqtt_cjson_parse) refers to mqtt.o(i.mqtt_report_devices_status2) for mqtt_report_devices_status2
    mqtt.o(i.mqtt_cjson_parse) refers to stm32f4xx_gpio.o(i.GPIO_ResetBits) for GPIO_ResetBits
    mqtt.o(i.mqtt_cjson_parse) refers to mqtt.o(i.mqtt_report_devices_status3) for mqtt_report_devices_status3
    mqtt.o(i.mqtt_cjson_parse) refers to mqtt.o(.conststring) for .conststring
    mqtt.o(i.mqtt_connect) refers to strlen.o(.text) for strlen
    mqtt.o(i.mqtt_connect) refers to memcpy.o(.text) for __aeabi_memcpy
    mqtt.o(i.mqtt_connect) refers to memseta.o(.text) for __aeabi_memclr
    mqtt.o(i.mqtt_connect) refers to mqtt.o(i.mqtt_send_bytes) for mqtt_send_bytes
    mqtt.o(i.mqtt_connect) refers to delay.o(i.delay_ms) for delay_ms
    mqtt.o(i.mqtt_connect) refers to printfa.o(i.__0printf) for __2printf
    mqtt.o(i.mqtt_connect) refers to mqtt.o(.data) for mqtt_tx_len
    mqtt.o(i.mqtt_connect) refers to usart2.o(.bss) for Tx3Buffer
    mqtt.o(i.mqtt_connect) refers to usart2.o(.data) for Rx3Counter
    mqtt.o(i.mqtt_disconnect) refers to mqtt.o(i.mqtt_send_bytes) for mqtt_send_bytes
    mqtt.o(i.mqtt_disconnect) refers to esp8266.o(i.esp8266_disconnect_server) for esp8266_disconnect_server
    mqtt.o(i.mqtt_msg_handle) refers to delay.o(i.delay_ms) for delay_ms
    mqtt.o(i.mqtt_msg_handle) refers to esp8266.o(i.esp8266_find_str_in_rx_packet) for esp8266_find_str_in_rx_packet
    mqtt.o(i.mqtt_msg_handle) refers to mqtt.o(i.mqtt_cjson_parse) for mqtt_cjson_parse
    mqtt.o(i.mqtt_msg_handle) refers to usart2.o(.bss) for Rx3Buffer
    mqtt.o(i.mqtt_msg_handle) refers to usart2.o(.data) for Rx3Counter
    mqtt.o(i.mqtt_publish_data) refers to strlen.o(.text) for strlen
    mqtt.o(i.mqtt_publish_data) refers to memcpy.o(.text) for __aeabi_memcpy
    mqtt.o(i.mqtt_publish_data) refers to mqtt.o(i.mqtt_send_bytes) for mqtt_send_bytes
    mqtt.o(i.mqtt_publish_data) refers to mqtt.o(.data) for mqtt_tx_len
    mqtt.o(i.mqtt_publish_data) refers to usart2.o(.bss) for Tx3Buffer
    mqtt.o(i.mqtt_report_devices_status) refers to printfa.o(i.__0sprintf) for __2sprintf
    mqtt.o(i.mqtt_report_devices_status) refers to mqtt.o(i.mqtt_publish_data) for mqtt_publish_data
    mqtt.o(i.mqtt_report_devices_status) refers to printfa.o(i.__0printf) for __2printf
    mqtt.o(i.mqtt_report_devices_status) refers to adc.o(.data) for dhtbuf
    mqtt.o(i.mqtt_report_devices_status) refers to mqtt.o(.conststring) for .conststring
    mqtt.o(i.mqtt_report_devices_status) refers to mqtt.o(.bss) for mqtt_post_msg
    mqtt.o(i.mqtt_report_devices_status2) refers to printfa.o(i.__0sprintf) for __2sprintf
    mqtt.o(i.mqtt_report_devices_status2) refers to mqtt.o(i.mqtt_publish_data) for mqtt_publish_data
    mqtt.o(i.mqtt_report_devices_status2) refers to printfa.o(i.__0printf) for __2printf
    mqtt.o(i.mqtt_report_devices_status2) refers to mqtt.o(.conststring) for .conststring
    mqtt.o(i.mqtt_report_devices_status2) refers to mqtt.o(.bss) for mqtt_post_msg
    mqtt.o(i.mqtt_report_devices_status3) refers to printfa.o(i.__0sprintf) for __2sprintf
    mqtt.o(i.mqtt_report_devices_status3) refers to mqtt.o(i.mqtt_publish_data) for mqtt_publish_data
    mqtt.o(i.mqtt_report_devices_status3) refers to printfa.o(i.__0printf) for __2printf
    mqtt.o(i.mqtt_report_devices_status3) refers to mqtt.o(.conststring) for .conststring
    mqtt.o(i.mqtt_report_devices_status3) refers to mqtt.o(.bss) for mqtt_post_msg
    mqtt.o(i.mqtt_send_bytes) refers to esp8266.o(i.esp8266_send_bytes) for esp8266_send_bytes
    mqtt.o(i.mqtt_send_heart) refers to mqtt.o(i.mqtt_send_bytes) for mqtt_send_bytes
    mqtt.o(i.mqtt_send_heart) refers to memseta.o(.text) for __aeabi_memclr
    mqtt.o(i.mqtt_send_heart) refers to delay.o(i.delay_ms) for delay_ms
    mqtt.o(i.mqtt_send_heart) refers to printfa.o(i.__0printf) for __2printf
    mqtt.o(i.mqtt_send_heart) refers to usart2.o(.bss) for Rx3Buffer
    mqtt.o(i.mqtt_send_heart) refers to usart2.o(.data) for Rx3Counter
    mqtt.o(i.mqtt_subscribe_topic) refers to strlen.o(.text) for strlen
    mqtt.o(i.mqtt_subscribe_topic) refers to memcpy.o(.text) for __aeabi_memcpy
    mqtt.o(i.mqtt_subscribe_topic) refers to memseta.o(.text) for __aeabi_memclr
    mqtt.o(i.mqtt_subscribe_topic) refers to mqtt.o(i.mqtt_send_bytes) for mqtt_send_bytes
    mqtt.o(i.mqtt_subscribe_topic) refers to delay.o(i.delay_ms) for delay_ms
    mqtt.o(i.mqtt_subscribe_topic) refers to printfa.o(i.__0printf) for __2printf
    mqtt.o(i.mqtt_subscribe_topic) refers to mqtt.o(.data) for mqtt_tx_len
    mqtt.o(i.mqtt_subscribe_topic) refers to usart2.o(.bss) for Tx3Buffer
    mqtt.o(i.mqtt_subscribe_topic) refers to usart2.o(.data) for Rx3Counter
    oled.o(i.OLED_Clear) refers to oled.o(i.OLED_SetCursor) for OLED_SetCursor
    oled.o(i.OLED_Clear) refers to oled.o(i.OLED_WriteData) for OLED_WriteData
    oled.o(i.OLED_DrawBMP) refers to oled.o(i.OLED_SetCursor) for OLED_SetCursor
    oled.o(i.OLED_DrawBMP) refers to oled.o(i.OLED_WriteData) for OLED_WriteData
    oled.o(i.OLED_Init) refers to delay.o(i.delay_ms) for delay_ms
    oled.o(i.OLED_Init) refers to oled.o(i.OLED_WriteCommand) for OLED_WriteCommand
    oled.o(i.OLED_Init) refers to oled.o(i.OLED_Clear) for OLED_Clear
    oled.o(i.OLED_SetCursor) refers to oled.o(i.OLED_WriteCommand) for OLED_WriteCommand
    oled.o(i.OLED_ShowBinNum) refers to oled.o(i.OLED_Pow) for OLED_Pow
    oled.o(i.OLED_ShowBinNum) refers to oled.o(i.OLED_ShowChar) for OLED_ShowChar
    oled.o(i.OLED_ShowChar) refers to oled.o(i.OLED_SetCursor) for OLED_SetCursor
    oled.o(i.OLED_ShowChar) refers to oled.o(i.OLED_WriteData) for OLED_WriteData
    oled.o(i.OLED_ShowChar) refers to oled.o(.constdata) for OLED_F8x16
    oled.o(i.OLED_ShowChinese) refers to oled.o(i.OLED_SetCursor) for OLED_SetCursor
    oled.o(i.OLED_ShowChinese) refers to oled.o(i.OLED_WriteData) for OLED_WriteData
    oled.o(i.OLED_ShowChinese) refers to oled.o(.constdata) for Chinese_16x16
    oled.o(i.OLED_ShowChinese2) refers to oled.o(i.OLED_SetCursor) for OLED_SetCursor
    oled.o(i.OLED_ShowChinese2) refers to oled.o(i.OLED_WriteData) for OLED_WriteData
    oled.o(i.OLED_ShowChinese2) refers to oled.o(.constdata) for Chinese_8x8
    oled.o(i.OLED_ShowHexNum) refers to oled.o(i.OLED_Pow) for OLED_Pow
    oled.o(i.OLED_ShowHexNum) refers to oled.o(i.OLED_ShowChar) for OLED_ShowChar
    oled.o(i.OLED_ShowNum) refers to oled.o(i.OLED_Pow) for OLED_Pow
    oled.o(i.OLED_ShowNum) refers to oled.o(i.OLED_ShowChar) for OLED_ShowChar
    oled.o(i.OLED_ShowSignedNum) refers to oled.o(i.OLED_ShowChar) for OLED_ShowChar
    oled.o(i.OLED_ShowSignedNum) refers to oled.o(i.OLED_Pow) for OLED_Pow
    oled.o(i.OLED_ShowString) refers to oled.o(i.OLED_ShowChar) for OLED_ShowChar
    oled.o(i.OLED_WriteCommand) refers to i2c.o(i.IIC_Start) for IIC_Start
    oled.o(i.OLED_WriteCommand) refers to i2c.o(i.IIC_SendByte) for IIC_SendByte
    oled.o(i.OLED_WriteCommand) refers to i2c.o(i.IIC_WaitSlaveAck) for IIC_WaitSlaveAck
    oled.o(i.OLED_WriteCommand) refers to i2c.o(i.IIC_Stop) for IIC_Stop
    oled.o(i.OLED_WriteData) refers to i2c.o(i.IIC_Start) for IIC_Start
    oled.o(i.OLED_WriteData) refers to i2c.o(i.IIC_SendByte) for IIC_SendByte
    oled.o(i.OLED_WriteData) refers to i2c.o(i.IIC_WaitSlaveAck) for IIC_WaitSlaveAck
    oled.o(i.OLED_WriteData) refers to i2c.o(i.IIC_Stop) for IIC_Stop
    rtc.o(i.RTC_Config) refers to stm32f4xx_rcc.o(i.RCC_APB1PeriphClockCmd) for RCC_APB1PeriphClockCmd
    rtc.o(i.RTC_Config) refers to stm32f4xx_pwr.o(i.PWR_BackupAccessCmd) for PWR_BackupAccessCmd
    rtc.o(i.RTC_Config) refers to stm32f4xx_rcc.o(i.RCC_LSEConfig) for RCC_LSEConfig
    rtc.o(i.RTC_Config) refers to stm32f4xx_rcc.o(i.RCC_GetFlagStatus) for RCC_GetFlagStatus
    rtc.o(i.RTC_Config) refers to stm32f4xx_rcc.o(i.RCC_RTCCLKConfig) for RCC_RTCCLKConfig
    rtc.o(i.RTC_Config) refers to stm32f4xx_rcc.o(i.RCC_RTCCLKCmd) for RCC_RTCCLKCmd
    rtc.o(i.RTC_Config) refers to stm32f4xx_rtc.o(i.RTC_WaitForSynchro) for RTC_WaitForSynchro
    rtc.o(i.RTC_Config) refers to stm32f4xx_rtc.o(i.RTC_Init) for RTC_Init
    rtc.o(i.RTC_Config) refers to stm32f4xx_rtc.o(i.RTC_SetDate) for RTC_SetDate
    rtc.o(i.RTC_Config) refers to stm32f4xx_rtc.o(i.RTC_SetTime) for RTC_SetTime
    rtc.o(i.RTC_Config) refers to misc.o(i.NVIC_Init) for NVIC_Init
    rtc.o(i.RTC_Config) refers to stm32f4xx_exti.o(i.EXTI_ClearITPendingBit) for EXTI_ClearITPendingBit
    rtc.o(i.RTC_Config) refers to stm32f4xx_exti.o(i.EXTI_Init) for EXTI_Init
    rtc.o(i.RTC_Config) refers to stm32f4xx_rtc.o(i.RTC_ClearITPendingBit) for RTC_ClearITPendingBit
    rtc.o(i.RTC_Config) refers to stm32f4xx_rtc.o(i.RTC_WakeUpCmd) for RTC_WakeUpCmd
    rtc.o(i.RTC_Config) refers to stm32f4xx_rtc.o(i.RTC_WakeUpClockConfig) for RTC_WakeUpClockConfig
    rtc.o(i.RTC_Config) refers to stm32f4xx_rtc.o(i.RTC_SetWakeUpCounter) for RTC_SetWakeUpCounter
    rtc.o(i.RTC_Config) refers to stm32f4xx_rtc.o(i.RTC_ITConfig) for RTC_ITConfig
    rtc.o(i.RTC_Config) refers to rtc.o(.data) for RTC_DateStructure
    rtc.o(i.RTC_WKUP_IRQHandler) refers to stm32f4xx_rtc.o(i.RTC_GetITStatus) for RTC_GetITStatus
    rtc.o(i.RTC_WKUP_IRQHandler) refers to stm32f4xx_rtc.o(i.RTC_ClearITPendingBit) for RTC_ClearITPendingBit
    rtc.o(i.RTC_WKUP_IRQHandler) refers to stm32f4xx_exti.o(i.EXTI_ClearITPendingBit) for EXTI_ClearITPendingBit
    rtc.o(i.RTC_WKUP_IRQHandler) refers to rtc.o(.data) for uwTimeDisplay
    usart.o(i.USART1_SendString) refers to stm32f4xx_usart.o(i.USART_SendData) for USART_SendData
    usart.o(i.USART1_SendString) refers to stm32f4xx_usart.o(i.USART_GetFlagStatus) for USART_GetFlagStatus
    usart.o(i.USART2_Config) refers to stm32f4xx_rcc.o(i.RCC_AHB1PeriphClockCmd) for RCC_AHB1PeriphClockCmd
    usart.o(i.USART2_Config) refers to stm32f4xx_rcc.o(i.RCC_APB1PeriphClockCmd) for RCC_APB1PeriphClockCmd
    usart.o(i.USART2_Config) refers to stm32f4xx_gpio.o(i.GPIO_PinAFConfig) for GPIO_PinAFConfig
    usart.o(i.USART2_Config) refers to stm32f4xx_gpio.o(i.GPIO_Init) for GPIO_Init
    usart.o(i.USART2_Config) refers to stm32f4xx_usart.o(i.USART_Init) for USART_Init
    usart.o(i.USART2_Config) refers to misc.o(i.NVIC_Init) for NVIC_Init
    usart.o(i.USART2_Config) refers to stm32f4xx_usart.o(i.USART_ITConfig) for USART_ITConfig
    usart.o(i.USART2_Config) refers to stm32f4xx_usart.o(i.USART_Cmd) for USART_Cmd
    usart.o(i.USART2_Handle) refers to strstr.o(.text) for strstr
    usart.o(i.USART2_Handle) refers to nettime.o(i.Get_Network_Weather) for Get_Network_Weather
    usart.o(i.USART2_Handle) refers to memseta.o(.text) for __aeabi_memclr
    usart.o(i.USART2_Handle) refers to printfa.o(i.__0printf) for __2printf
    usart.o(i.USART2_Handle) refers to stm32f4xx_gpio.o(i.GPIO_ResetBits) for GPIO_ResetBits
    usart.o(i.USART2_Handle) refers to motor.o(i.FanConfig) for FanConfig
    usart.o(i.USART2_Handle) refers to motor.o(i.Motor_Config) for Motor_Config
    usart.o(i.USART2_Handle) refers to delay.o(i.delay_ms) for delay_ms
    usart.o(i.USART2_Handle) refers to motor.o(i.Motorcw1) for Motorcw1
    usart.o(i.USART2_Handle) refers to stm32f4xx_gpio.o(i.GPIO_SetBits) for GPIO_SetBits
    usart.o(i.USART2_Handle) refers to motor.o(i.FanInit) for FanInit
    usart.o(i.USART2_Handle) refers to motor.o(i.Motorcw2) for Motorcw2
    usart.o(i.USART2_Handle) refers to usart.o(.bss) for host_buffer
    usart.o(i.USART2_Handle) refers to usart.o(.data) for host_recvflag
    usart.o(i.USART2_IRQHandler) refers to stm32f4xx_usart.o(i.USART_GetITStatus) for USART_GetITStatus
    usart.o(i.USART2_IRQHandler) refers to stm32f4xx_usart.o(i.USART_ReceiveData) for USART_ReceiveData
    usart.o(i.USART2_IRQHandler) refers to stm32f4xx_usart.o(i.USART_SendData) for USART_SendData
    usart.o(i.USART2_IRQHandler) refers to usart.o(.data) for host_cnt
    usart.o(i.USART2_IRQHandler) refers to usart.o(.bss) for host_buffer
    usart.o(i.USART2_SendString) refers to stm32f4xx_usart.o(i.USART_SendData) for USART_SendData
    usart.o(i.USART2_SendString) refers to stm32f4xx_usart.o(i.USART_GetFlagStatus) for USART_GetFlagStatus
    usart2.o(i.USART1_Config) refers to stm32f4xx_rcc.o(i.RCC_AHB1PeriphClockCmd) for RCC_AHB1PeriphClockCmd
    usart2.o(i.USART1_Config) refers to stm32f4xx_rcc.o(i.RCC_APB2PeriphClockCmd) for RCC_APB2PeriphClockCmd
    usart2.o(i.USART1_Config) refers to stm32f4xx_gpio.o(i.GPIO_PinAFConfig) for GPIO_PinAFConfig
    usart2.o(i.USART1_Config) refers to stm32f4xx_gpio.o(i.GPIO_Init) for GPIO_Init
    usart2.o(i.USART1_Config) refers to stm32f4xx_usart.o(i.USART_Init) for USART_Init
    usart2.o(i.USART1_Config) refers to misc.o(i.NVIC_Init) for NVIC_Init
    usart2.o(i.USART1_Config) refers to stm32f4xx_usart.o(i.USART_ITConfig) for USART_ITConfig
    usart2.o(i.USART1_Config) refers to stm32f4xx_usart.o(i.USART_Cmd) for USART_Cmd
    usart2.o(i.USART1_IRQHandler) refers to stm32f4xx_usart.o(i.USART_GetITStatus) for USART_GetITStatus
    usart2.o(i.USART1_IRQHandler) refers to stm32f4xx_usart.o(i.USART_ReceiveData) for USART_ReceiveData
    usart2.o(i.USART1_IRQHandler) refers to stm32f4xx_usart.o(i.USART_SendData) for USART_SendData
    usart2.o(i.USART3_Config) refers to stm32f4xx_rcc.o(i.RCC_AHB1PeriphClockCmd) for RCC_AHB1PeriphClockCmd
    usart2.o(i.USART3_Config) refers to stm32f4xx_rcc.o(i.RCC_APB1PeriphClockCmd) for RCC_APB1PeriphClockCmd
    usart2.o(i.USART3_Config) refers to stm32f4xx_gpio.o(i.GPIO_PinAFConfig) for GPIO_PinAFConfig
    usart2.o(i.USART3_Config) refers to stm32f4xx_gpio.o(i.GPIO_Init) for GPIO_Init
    usart2.o(i.USART3_Config) refers to stm32f4xx_usart.o(i.USART_Init) for USART_Init
    usart2.o(i.USART3_Config) refers to misc.o(i.NVIC_Init) for NVIC_Init
    usart2.o(i.USART3_Config) refers to stm32f4xx_usart.o(i.USART_ITConfig) for USART_ITConfig
    usart2.o(i.USART3_Config) refers to stm32f4xx_usart.o(i.USART_Cmd) for USART_Cmd
    usart2.o(i.USART3_IRQHandler) refers to stm32f4xx_usart.o(i.USART_GetITStatus) for USART_GetITStatus
    usart2.o(i.USART3_IRQHandler) refers to stm32f4xx_usart.o(i.USART_ReceiveData) for USART_ReceiveData
    usart2.o(i.USART3_IRQHandler) refers to stm32f4xx_usart.o(i.USART_ClearITPendingBit) for USART_ClearITPendingBit
    usart2.o(i.USART3_IRQHandler) refers to usart2.o(.data) for Rx3Data
    usart2.o(i.USART3_IRQHandler) refers to usart2.o(.bss) for Rx3Buffer
    usart2.o(i.USART3_SendString) refers to stm32f4xx_usart.o(i.USART_SendData) for USART_SendData
    usart2.o(i.USART3_SendString) refers to stm32f4xx_usart.o(i.USART_GetFlagStatus) for USART_GetFlagStatus
    usart2.o(i.Usart_SendArray) refers to usart2.o(i.Usart_SendByte) for Usart_SendByte
    usart2.o(i.Usart_SendArray) refers to stm32f4xx_usart.o(i.USART_GetFlagStatus) for USART_GetFlagStatus
    usart2.o(i.Usart_SendByte) refers to stm32f4xx_usart.o(i.USART_SendData) for USART_SendData
    usart2.o(i.Usart_SendByte) refers to stm32f4xx_usart.o(i.USART_GetFlagStatus) for USART_GetFlagStatus
    usart2.o(i.Usart_SendBytes) refers to stm32f4xx_usart.o(i.USART_SendData) for USART_SendData
    usart2.o(i.Usart_SendBytes) refers to stm32f4xx_usart.o(i.USART_GetFlagStatus) for USART_GetFlagStatus
    usart2.o(i.Usart_SendBytes) refers to stm32f4xx_usart.o(i.USART_ClearFlag) for USART_ClearFlag
    usart2.o(i.Usart_SendHalfWord) refers to stm32f4xx_usart.o(i.USART_SendData) for USART_SendData
    usart2.o(i.Usart_SendHalfWord) refers to stm32f4xx_usart.o(i.USART_GetFlagStatus) for USART_GetFlagStatus
    usart2.o(i.Usart_SendString) refers to usart2.o(i.Usart_SendByte) for Usart_SendByte
    usart2.o(i.Usart_SendString) refers to stm32f4xx_usart.o(i.USART_GetFlagStatus) for USART_GetFlagStatus
    usart2.o(i.Usart_SendString) refers to stm32f4xx_usart.o(i.USART_ClearFlag) for USART_ClearFlag
    usart2.o(i.fputc) refers to stm32f4xx_usart.o(i.USART_SendData) for USART_SendData
    usart2.o(i.fputc) refers to stm32f4xx_usart.o(i.USART_GetFlagStatus) for USART_GetFlagStatus
    ws2812.o(i.ResetDataFlow) refers to delay.o(i.delay_us) for delay_us
    ws2812.o(i.WS2812_Change_Brightness) refers to ws2812.o(i.rgb2hsv) for rgb2hsv
    ws2812.o(i.WS2812_Change_Brightness) refers to ws2812.o(i.hsv2rgb) for hsv2rgb
    ws2812.o(i.WS2812_Change_Brightness) refers to ws2812.o(i.WS2812_RGB2GRB) for WS2812_RGB2GRB
    ws2812.o(i.WS2812_Change_Brightness) refers to ws2812.o(i.WS2812_SendSameColor) for WS2812_SendSameColor
    ws2812.o(i.WS2812_Close) refers to ws2812.o(i.WS2812_Show_RGB) for WS2812_Show_RGB
    ws2812.o(i.WS2812_Init) refers to stm32f4xx_rcc.o(i.RCC_AHB1PeriphClockCmd) for RCC_AHB1PeriphClockCmd
    ws2812.o(i.WS2812_Init) refers to stm32f4xx_gpio.o(i.GPIO_Init) for GPIO_Init
    ws2812.o(i.WS2812_Init) refers to stm32f4xx_gpio.o(i.GPIO_SetBits) for GPIO_SetBits
    ws2812.o(i.WS2812_Open) refers to ws2812.o(i.WS2812_Show_RGB) for WS2812_Show_RGB
    ws2812.o(i.WS2812_SendOneFrame) refers to ws2812.o(i.ResetDataFlow) for ResetDataFlow
    ws2812.o(i.WS2812_SendOneFrame) refers to ws2812.o(i.WS2812_SendOnePix) for WS2812_SendOnePix
    ws2812.o(i.WS2812_SendOneFrameFrom) refers to ws2812.o(i.ResetDataFlow) for ResetDataFlow
    ws2812.o(i.WS2812_SendOneFrameFrom) refers to ws2812.o(i.WS2812_SendOnePix) for WS2812_SendOnePix
    ws2812.o(i.WS2812_SendOneFrameSince) refers to ws2812.o(i.ResetDataFlow) for ResetDataFlow
    ws2812.o(i.WS2812_SendOneFrameSince) refers to ws2812.o(i.WS2812_SendOnePix) for WS2812_SendOnePix
    ws2812.o(i.WS2812_SendSameColor) refers to ws2812.o(i.ResetDataFlow) for ResetDataFlow
    ws2812.o(i.WS2812_SendSameColor) refers to ws2812.o(i.WS2812_SendOnePix) for WS2812_SendOnePix
    ws2812.o(i.WS2812_Show_RGB) refers to ws2812.o(i.rgb2hsv) for rgb2hsv
    ws2812.o(i.WS2812_Show_RGB) refers to ws2812.o(i.hsv2rgb) for hsv2rgb
    ws2812.o(i.WS2812_Show_RGB) refers to ws2812.o(i.WS2812_SendSameColor) for WS2812_SendSameColor
    ws2812.o(i.WS2812_Show_RGB) refers to ws2812.o(i.WS2812_RGB2GRB) for WS2812_RGB2GRB
    ws2812.o(i.WS2812_Show_RGB) refers to ws2812.o(.constdata) for WS2812_Clear
    ws2812.o(i.hsv2rgb) refers to dflti.o(.text) for __aeabi_i2d
    ws2812.o(i.hsv2rgb) refers to f2d.o(.text) for __aeabi_f2d
    ws2812.o(i.hsv2rgb) refers to dmul.o(.text) for __aeabi_dmul
    ws2812.o(i.hsv2rgb) refers to ddiv.o(.text) for __aeabi_ddiv
    ws2812.o(i.hsv2rgb) refers to dadd.o(.text) for __aeabi_dsub
    ws2812.o(i.hsv2rgb) refers to d2f.o(.text) for __aeabi_d2f
    ws2812.o(i.rgb2hsv) refers to ws2812.o(i.max) for max
    ws2812.o(i.rgb2hsv) refers to ws2812.o(i.min) for min
    nettime.o(i.Get_Network_Time) refers to esp8266.o(i.esp8266_connect_server) for esp8266_connect_server
    nettime.o(i.Get_Network_Time) refers to printfa.o(i.__0printf) for __2printf
    nettime.o(i.Get_Network_Time) refers to delay.o(i.delay_ms) for delay_ms
    nettime.o(i.Get_Network_Time) refers to esp8266.o(i.esp8266_check_connection_status) for esp8266_check_connection_status
    nettime.o(i.Get_Network_Time) refers to esp8266.o(i.Esp8266_Init) for Esp8266_Init
    nettime.o(i.Get_Network_Time) refers to esp8266.o(i.esp8266_entry_transparent_transmission) for esp8266_entry_transparent_transmission
    nettime.o(i.Get_Network_Time) refers to esp8266.o(i.esp8266_send_str) for esp8266_send_str
    nettime.o(i.Get_Network_Time) refers to esp8266.o(i.esp8266_exit_transparent_transmission) for esp8266_exit_transparent_transmission
    nettime.o(i.Get_Network_Time) refers to nettime.o(i.calculating_time) for calculating_time
    nettime.o(i.Get_Network_Time) refers to esp8266.o(i.esp8266_disconnect_server) for esp8266_disconnect_server
    nettime.o(i.Get_Network_Time) refers to nettime.o(.conststring) for .conststring
    nettime.o(i.Get_Network_Time) refers to usart2.o(.bss) for Rx3Buffer
    nettime.o(i.Get_Network_Weather) refers to esp8266.o(i.Esp8266_Init) for Esp8266_Init
    nettime.o(i.Get_Network_Weather) refers to esp8266.o(i.esp8266_connect_server) for esp8266_connect_server
    nettime.o(i.Get_Network_Weather) refers to printfa.o(i.__0printf) for __2printf
    nettime.o(i.Get_Network_Weather) refers to delay.o(i.delay_ms) for delay_ms
    nettime.o(i.Get_Network_Weather) refers to esp8266.o(i.esp8266_check_connection_status) for esp8266_check_connection_status
    nettime.o(i.Get_Network_Weather) refers to esp8266.o(i.esp8266_entry_transparent_transmission) for esp8266_entry_transparent_transmission
    nettime.o(i.Get_Network_Weather) refers to esp8266.o(i.esp8266_send_str) for esp8266_send_str
    nettime.o(i.Get_Network_Weather) refers to esp8266.o(i.esp8266_exit_transparent_transmission) for esp8266_exit_transparent_transmission
    nettime.o(i.Get_Network_Weather) refers to nettime.o(i.WeatherHandle) for WeatherHandle
    nettime.o(i.Get_Network_Weather) refers to esp8266.o(i.esp8266_disconnect_server) for esp8266_disconnect_server
    nettime.o(i.Get_Network_Weather) refers to nettime.o(.conststring) for .conststring
    nettime.o(i.Get_Network_Weather) refers to usart2.o(.bss) for Rx3Buffer
    nettime.o(i.WeatherHandle) refers to memseta.o(.text) for __aeabi_memclr4
    nettime.o(i.WeatherHandle) refers to cjson.o(i.cJSON_Parse) for cJSON_Parse
    nettime.o(i.WeatherHandle) refers to cjson.o(i.cJSON_Print) for cJSON_Print
    nettime.o(i.WeatherHandle) refers to printfa.o(i.__0printf) for __2printf
    nettime.o(i.WeatherHandle) refers to cjson.o(i.cJSON_GetObjectItem) for cJSON_GetObjectItem
    nettime.o(i.WeatherHandle) refers to cjson.o(i.cJSON_GetArrayItem) for cJSON_GetArrayItem
    nettime.o(i.WeatherHandle) refers to printfa.o(i.__0sprintf) for __2sprintf
    nettime.o(i.WeatherHandle) refers to usart.o(i.USART2_SendString) for USART2_SendString
    nettime.o(i.WeatherHandle) refers to usart2.o(.bss) for Rx3Buffer
    nettime.o(i.calculating_time) refers to strstr.o(.text) for strstr
    nettime.o(i.calculating_time) refers to atoi.o(.text) for atoi
    nettime.o(i.calculating_time) refers to printfa.o(i.__0printf) for __2printf
    nettime.o(i.calculating_time) refers to usart2.o(.bss) for Rx3Buffer
    nettime.o(i.calculating_time) refers to nettime.o(.data) for calendar
    system_stm32f4xx.o(i.SystemCoreClockUpdate) refers to system_stm32f4xx.o(.data) for SystemCoreClock
    system_stm32f4xx.o(i.SystemInit) refers to system_stm32f4xx.o(i.SetSysClock) for SetSysClock
    main.o(i.main) refers to usart2.o(i.USART1_Config) for USART1_Config
    main.o(i.main) refers to usart.o(i.USART2_Config) for USART2_Config
    main.o(i.main) refers to usart2.o(i.USART3_Config) for USART3_Config
    main.o(i.main) refers to i2c.o(i.IIC_Config) for IIC_Config
    main.o(i.main) refers to led.o(i.LED_Init) for LED_Init
    main.o(i.main) refers to led.o(i.BEEP_Init) for BEEP_Init
    main.o(i.main) refers to led.o(i.KEY_Init) for KEY_Init
    main.o(i.main) refers to oled.o(i.OLED_Init) for OLED_Init
    main.o(i.main) refers to adc.o(i.Fire_Config) for Fire_Config
    main.o(i.main) refers to adc.o(i.LightSensor_Config) for LightSensor_Config
    main.o(i.main) refers to adc.o(i.Smog_Config) for Smog_Config
    main.o(i.main) refers to adc.o(i.DHT11_Config) for DHT11_Config
    main.o(i.main) refers to motor.o(i.FanInit) for FanInit
    main.o(i.main) refers to ws2812.o(i.WS2812_Init) for WS2812_Init
    main.o(i.main) refers to oled.o(i.OLED_WriteCommand) for OLED_WriteCommand
    main.o(i.main) refers to oled.o(i.OLED_DrawBMP) for OLED_DrawBMP
    main.o(i.main) refers to esp8266.o(i.Esp8266_Init) for Esp8266_Init
    main.o(i.main) refers to queue.o(i.xQueueCreateMutex) for xQueueCreateMutex
    main.o(i.main) refers to tasks.o(i.xTaskCreate) for xTaskCreate
    main.o(i.main) refers to tasks.o(i.vTaskStartScheduler) for vTaskStartScheduler
    main.o(i.main) refers to main.o(.data) for BMP1
    main.o(i.main) refers to main.o(i.task1_func) for task1_func
    main.o(i.main) refers to main.o(i.task2_func) for task2_func
    main.o(i.main) refers to main.o(i.task3_func) for task3_func
    main.o(i.task1_func) refers to printfa.o(i.__0printf) for __2printf
    main.o(i.task1_func) refers to nettime.o(i.Get_Network_Time) for Get_Network_Time
    main.o(i.task1_func) refers to rtc.o(i.RTC_Config) for RTC_Config
    main.o(i.task1_func) refers to mqtt.o(i.Mqtt_Connect_Aliyun) for Mqtt_Connect_Aliyun
    main.o(i.task1_func) refers to oled.o(i.OLED_Clear) for OLED_Clear
    main.o(i.task1_func) refers to memseta.o(.text) for __aeabi_memclr4
    main.o(i.task1_func) refers to queue.o(i.xQueueGenericReceive) for xQueueGenericReceive
    main.o(i.task1_func) refers to stm32f4xx_rtc.o(i.RTC_GetTime) for RTC_GetTime
    main.o(i.task1_func) refers to stm32f4xx_rtc.o(i.RTC_GetDate) for RTC_GetDate
    main.o(i.task1_func) refers to stm32f4xx_adc.o(i.ADC_SoftwareStartConv) for ADC_SoftwareStartConv
    main.o(i.task1_func) refers to stm32f4xx_adc.o(i.ADC_GetFlagStatus) for ADC_GetFlagStatus
    main.o(i.task1_func) refers to stm32f4xx_adc.o(i.ADC_GetConversionValue) for ADC_GetConversionValue
    main.o(i.task1_func) refers to stm32f4xx_gpio.o(i.GPIO_ResetBits) for GPIO_ResetBits
    main.o(i.task1_func) refers to dfltui.o(.text) for __aeabi_ui2d
    main.o(i.task1_func) refers to dmul.o(.text) for __aeabi_dmul
    main.o(i.task1_func) refers to d2f.o(.text) for __aeabi_d2f
    main.o(i.task1_func) refers to f2d.o(.text) for __aeabi_f2d
    main.o(i.task1_func) refers to ddiv.o(.text) for __aeabi_ddiv
    main.o(i.task1_func) refers to pow.o(i.__hardfp_pow) for __hardfp_pow
    main.o(i.task1_func) refers to dfixi.o(.text) for __aeabi_d2iz
    main.o(i.task1_func) refers to adc.o(i.DHT11_GetValue) for DHT11_GetValue
    main.o(i.task1_func) refers to printfa.o(i.__0sprintf) for __2sprintf
    main.o(i.task1_func) refers to oled.o(i.OLED_ShowChinese) for OLED_ShowChinese
    main.o(i.task1_func) refers to oled.o(i.OLED_ShowString) for OLED_ShowString
    main.o(i.task1_func) refers to oled.o(i.OLED_ShowChinese2) for OLED_ShowChinese2
    main.o(i.task1_func) refers to oled.o(i.OLED_ShowChar) for OLED_ShowChar
    main.o(i.task1_func) refers to oled.o(i.OLED_ShowNum) for OLED_ShowNum
    main.o(i.task1_func) refers to mqtt.o(i.mqtt_report_devices_status) for mqtt_report_devices_status
    main.o(i.task1_func) refers to mqtt.o(i.mqtt_send_heart) for mqtt_send_heart
    main.o(i.task1_func) refers to queue.o(i.xQueueGenericSend) for xQueueGenericSend
    main.o(i.task1_func) refers to tasks.o(i.vTaskDelay) for vTaskDelay
    main.o(i.task1_func) refers to nettime.o(.data) for calendar
    main.o(i.task1_func) refers to rtc.o(.data) for uwTimeDisplay
    main.o(i.task1_func) refers to main.o(.data) for xSemaphore
    main.o(i.task1_func) refers to adc.o(.data) for dhtbuf
    main.o(i.task2_func) refers to printfa.o(i.__0printf) for __2printf
    main.o(i.task2_func) refers to queue.o(i.xQueueGenericReceive) for xQueueGenericReceive
    main.o(i.task2_func) refers to usart.o(i.USART2_Handle) for USART2_Handle
    main.o(i.task2_func) refers to queue.o(i.xQueueGenericSend) for xQueueGenericSend
    main.o(i.task2_func) refers to tasks.o(i.vTaskDelay) for vTaskDelay
    main.o(i.task2_func) refers to main.o(.data) for xSemaphore
    main.o(i.task3_func) refers to printfa.o(i.__0printf) for __2printf
    main.o(i.task3_func) refers to queue.o(i.xQueueGenericReceive) for xQueueGenericReceive
    main.o(i.task3_func) refers to mqtt.o(i.mqtt_msg_handle) for mqtt_msg_handle
    main.o(i.task3_func) refers to queue.o(i.xQueueGenericSend) for xQueueGenericSend
    main.o(i.task3_func) refers to tasks.o(i.vTaskDelay) for vTaskDelay
    main.o(i.task3_func) refers to main.o(.data) for xSemaphore
    tasks.o(i.eTaskGetState) refers to port.o(i.vPortEnterCritical) for vPortEnterCritical
    tasks.o(i.eTaskGetState) refers to port.o(i.vPortExitCritical) for vPortExitCritical
    tasks.o(i.eTaskGetState) refers to tasks.o(.data) for pxCurrentTCB
    tasks.o(i.eTaskGetState) refers to tasks.o(.bss) for xSuspendedTaskList
    tasks.o(i.pcTaskGetName) refers to tasks.o(.data) for pxCurrentTCB
    tasks.o(i.prvAddCurrentTaskToDelayedList) refers to list.o(i.uxListRemove) for uxListRemove
    tasks.o(i.prvAddCurrentTaskToDelayedList) refers to list.o(i.vListInsertEnd) for vListInsertEnd
    tasks.o(i.prvAddCurrentTaskToDelayedList) refers to list.o(i.vListInsert) for vListInsert
    tasks.o(i.prvAddCurrentTaskToDelayedList) refers to tasks.o(.data) for xTickCount
    tasks.o(i.prvAddCurrentTaskToDelayedList) refers to tasks.o(.bss) for xSuspendedTaskList
    tasks.o(i.prvAddNewTaskToReadyList) refers to port.o(i.vPortEnterCritical) for vPortEnterCritical
    tasks.o(i.prvAddNewTaskToReadyList) refers to tasks.o(i.prvInitialiseTaskLists) for prvInitialiseTaskLists
    tasks.o(i.prvAddNewTaskToReadyList) refers to list.o(i.vListInsertEnd) for vListInsertEnd
    tasks.o(i.prvAddNewTaskToReadyList) refers to port.o(i.vPortExitCritical) for vPortExitCritical
    tasks.o(i.prvAddNewTaskToReadyList) refers to tasks.o(.data) for uxCurrentNumberOfTasks
    tasks.o(i.prvAddNewTaskToReadyList) refers to tasks.o(.bss) for pxReadyTasksLists
    tasks.o(i.prvCheckTasksWaitingTermination) refers to tasks.o(i.vTaskSuspendAll) for vTaskSuspendAll
    tasks.o(i.prvCheckTasksWaitingTermination) refers to tasks.o(i.xTaskResumeAll) for xTaskResumeAll
    tasks.o(i.prvCheckTasksWaitingTermination) refers to port.o(i.vPortEnterCritical) for vPortEnterCritical
    tasks.o(i.prvCheckTasksWaitingTermination) refers to list.o(i.uxListRemove) for uxListRemove
    tasks.o(i.prvCheckTasksWaitingTermination) refers to port.o(i.vPortExitCritical) for vPortExitCritical
    tasks.o(i.prvCheckTasksWaitingTermination) refers to tasks.o(i.prvDeleteTCB) for prvDeleteTCB
    tasks.o(i.prvCheckTasksWaitingTermination) refers to tasks.o(.bss) for xTasksWaitingTermination
    tasks.o(i.prvCheckTasksWaitingTermination) refers to tasks.o(.data) for uxCurrentNumberOfTasks
    tasks.o(i.prvDeleteTCB) refers to heap_4.o(i.vPortFree) for vPortFree
    tasks.o(i.prvIdleTask) refers to tasks.o(i.prvCheckTasksWaitingTermination) for prvCheckTasksWaitingTermination
    tasks.o(i.prvIdleTask) refers to tasks.o(.bss) for pxReadyTasksLists
    tasks.o(i.prvInitialiseNewTask) refers to memseta.o(.text) for __aeabi_memset
    tasks.o(i.prvInitialiseNewTask) refers to list.o(i.vListInitialiseItem) for vListInitialiseItem
    tasks.o(i.prvInitialiseNewTask) refers to port.o(i.pxPortInitialiseStack) for pxPortInitialiseStack
    tasks.o(i.prvInitialiseTaskLists) refers to list.o(i.vListInitialise) for vListInitialise
    tasks.o(i.prvInitialiseTaskLists) refers to tasks.o(.bss) for pxReadyTasksLists
    tasks.o(i.prvInitialiseTaskLists) refers to tasks.o(.data) for pxDelayedTaskList
    tasks.o(i.prvListTasksWithinSingleList) refers to tasks.o(i.vTaskGetInfo) for vTaskGetInfo
    tasks.o(i.prvResetNextTaskUnblockTime) refers to tasks.o(.data) for pxDelayedTaskList
    tasks.o(i.prvTaskIsTaskSuspended) refers to tasks.o(.bss) for xSuspendedTaskList
    tasks.o(i.pvTaskIncrementMutexHeldCount) refers to tasks.o(.data) for pxCurrentTCB
    tasks.o(i.ulTaskNotifyTake) refers to port.o(i.vPortEnterCritical) for vPortEnterCritical
    tasks.o(i.ulTaskNotifyTake) refers to tasks.o(i.prvAddCurrentTaskToDelayedList) for prvAddCurrentTaskToDelayedList
    tasks.o(i.ulTaskNotifyTake) refers to port.o(i.vPortExitCritical) for vPortExitCritical
    tasks.o(i.ulTaskNotifyTake) refers to tasks.o(.data) for pxCurrentTCB
    tasks.o(i.uxTaskGetNumberOfTasks) refers to tasks.o(.data) for uxCurrentNumberOfTasks
    tasks.o(i.uxTaskGetSystemState) refers to tasks.o(i.vTaskSuspendAll) for vTaskSuspendAll
    tasks.o(i.uxTaskGetSystemState) refers to tasks.o(i.prvListTasksWithinSingleList) for prvListTasksWithinSingleList
    tasks.o(i.uxTaskGetSystemState) refers to tasks.o(i.xTaskResumeAll) for xTaskResumeAll
    tasks.o(i.uxTaskGetSystemState) refers to tasks.o(.data) for uxCurrentNumberOfTasks
    tasks.o(i.uxTaskGetSystemState) refers to tasks.o(.bss) for pxReadyTasksLists
    tasks.o(i.uxTaskPriorityGet) refers to port.o(i.vPortEnterCritical) for vPortEnterCritical
    tasks.o(i.uxTaskPriorityGet) refers to port.o(i.vPortExitCritical) for vPortExitCritical
    tasks.o(i.uxTaskPriorityGet) refers to tasks.o(.data) for pxCurrentTCB
    tasks.o(i.uxTaskPriorityGetFromISR) refers to port.o(i.vPortValidateInterruptPriority) for vPortValidateInterruptPriority
    tasks.o(i.uxTaskPriorityGetFromISR) refers to tasks.o(.data) for pxCurrentTCB
    tasks.o(i.uxTaskResetEventItemValue) refers to tasks.o(.data) for pxCurrentTCB
    tasks.o(i.vTaskDelay) refers to tasks.o(i.vTaskSuspendAll) for vTaskSuspendAll
    tasks.o(i.vTaskDelay) refers to tasks.o(i.prvAddCurrentTaskToDelayedList) for prvAddCurrentTaskToDelayedList
    tasks.o(i.vTaskDelay) refers to tasks.o(i.xTaskResumeAll) for xTaskResumeAll
    tasks.o(i.vTaskDelay) refers to tasks.o(.data) for uxSchedulerSuspended
    tasks.o(i.vTaskDelayUntil) refers to tasks.o(i.vTaskSuspendAll) for vTaskSuspendAll
    tasks.o(i.vTaskDelayUntil) refers to tasks.o(i.prvAddCurrentTaskToDelayedList) for prvAddCurrentTaskToDelayedList
    tasks.o(i.vTaskDelayUntil) refers to tasks.o(i.xTaskResumeAll) for xTaskResumeAll
    tasks.o(i.vTaskDelayUntil) refers to tasks.o(.data) for uxSchedulerSuspended
    tasks.o(i.vTaskDelete) refers to port.o(i.vPortEnterCritical) for vPortEnterCritical
    tasks.o(i.vTaskDelete) refers to list.o(i.uxListRemove) for uxListRemove
    tasks.o(i.vTaskDelete) refers to list.o(i.vListInsertEnd) for vListInsertEnd
    tasks.o(i.vTaskDelete) refers to tasks.o(i.prvDeleteTCB) for prvDeleteTCB
    tasks.o(i.vTaskDelete) refers to tasks.o(i.prvResetNextTaskUnblockTime) for prvResetNextTaskUnblockTime
    tasks.o(i.vTaskDelete) refers to port.o(i.vPortExitCritical) for vPortExitCritical
    tasks.o(i.vTaskDelete) refers to tasks.o(.data) for pxCurrentTCB
    tasks.o(i.vTaskDelete) refers to tasks.o(.bss) for pxReadyTasksLists
    tasks.o(i.vTaskEndScheduler) refers to port.o(i.vPortEndScheduler) for vPortEndScheduler
    tasks.o(i.vTaskEndScheduler) refers to tasks.o(.data) for xSchedulerRunning
    tasks.o(i.vTaskGetInfo) refers to tasks.o(i.vTaskSuspendAll) for vTaskSuspendAll
    tasks.o(i.vTaskGetInfo) refers to tasks.o(i.xTaskResumeAll) for xTaskResumeAll
    tasks.o(i.vTaskGetInfo) refers to tasks.o(i.eTaskGetState) for eTaskGetState
    tasks.o(i.vTaskGetInfo) refers to tasks.o(i.prvTaskCheckFreeStackSpace) for prvTaskCheckFreeStackSpace
    tasks.o(i.vTaskGetInfo) refers to tasks.o(.data) for pxCurrentTCB
    tasks.o(i.vTaskMissedYield) refers to tasks.o(.data) for xYieldPending
    tasks.o(i.vTaskNotifyGiveFromISR) refers to port.o(i.vPortValidateInterruptPriority) for vPortValidateInterruptPriority
    tasks.o(i.vTaskNotifyGiveFromISR) refers to list.o(i.uxListRemove) for uxListRemove
    tasks.o(i.vTaskNotifyGiveFromISR) refers to list.o(i.vListInsertEnd) for vListInsertEnd
    tasks.o(i.vTaskNotifyGiveFromISR) refers to tasks.o(.data) for uxSchedulerSuspended
    tasks.o(i.vTaskNotifyGiveFromISR) refers to tasks.o(.bss) for pxReadyTasksLists
    tasks.o(i.vTaskPlaceOnEventList) refers to list.o(i.vListInsert) for vListInsert
    tasks.o(i.vTaskPlaceOnEventList) refers to tasks.o(i.prvAddCurrentTaskToDelayedList) for prvAddCurrentTaskToDelayedList
    tasks.o(i.vTaskPlaceOnEventList) refers to tasks.o(.data) for pxCurrentTCB
    tasks.o(i.vTaskPlaceOnUnorderedEventList) refers to list.o(i.vListInsertEnd) for vListInsertEnd
    tasks.o(i.vTaskPlaceOnUnorderedEventList) refers to tasks.o(i.prvAddCurrentTaskToDelayedList) for prvAddCurrentTaskToDelayedList
    tasks.o(i.vTaskPlaceOnUnorderedEventList) refers to tasks.o(.data) for uxSchedulerSuspended
    tasks.o(i.vTaskPriorityInherit) refers to list.o(i.uxListRemove) for uxListRemove
    tasks.o(i.vTaskPriorityInherit) refers to list.o(i.vListInsertEnd) for vListInsertEnd
    tasks.o(i.vTaskPriorityInherit) refers to tasks.o(.data) for pxCurrentTCB
    tasks.o(i.vTaskPriorityInherit) refers to tasks.o(.bss) for pxReadyTasksLists
    tasks.o(i.vTaskPrioritySet) refers to port.o(i.vPortEnterCritical) for vPortEnterCritical
    tasks.o(i.vTaskPrioritySet) refers to list.o(i.uxListRemove) for uxListRemove
    tasks.o(i.vTaskPrioritySet) refers to list.o(i.vListInsertEnd) for vListInsertEnd
    tasks.o(i.vTaskPrioritySet) refers to port.o(i.vPortExitCritical) for vPortExitCritical
    tasks.o(i.vTaskPrioritySet) refers to tasks.o(.data) for pxCurrentTCB
    tasks.o(i.vTaskPrioritySet) refers to tasks.o(.bss) for pxReadyTasksLists
    tasks.o(i.vTaskResume) refers to port.o(i.vPortEnterCritical) for vPortEnterCritical
    tasks.o(i.vTaskResume) refers to tasks.o(i.prvTaskIsTaskSuspended) for prvTaskIsTaskSuspended
    tasks.o(i.vTaskResume) refers to list.o(i.uxListRemove) for uxListRemove
    tasks.o(i.vTaskResume) refers to list.o(i.vListInsertEnd) for vListInsertEnd
    tasks.o(i.vTaskResume) refers to port.o(i.vPortExitCritical) for vPortExitCritical
    tasks.o(i.vTaskResume) refers to tasks.o(.data) for pxCurrentTCB
    tasks.o(i.vTaskResume) refers to tasks.o(.bss) for pxReadyTasksLists
    tasks.o(i.vTaskSetTimeOutState) refers to tasks.o(.data) for xNumOfOverflows
    tasks.o(i.vTaskStartScheduler) refers to tasks.o(i.xTaskCreate) for xTaskCreate
    tasks.o(i.vTaskStartScheduler) refers to port.o(i.xPortStartScheduler) for xPortStartScheduler
    tasks.o(i.vTaskStartScheduler) refers to tasks.o(.data) for xIdleTaskHandle
    tasks.o(i.vTaskStartScheduler) refers to tasks.o(i.prvIdleTask) for prvIdleTask
    tasks.o(i.vTaskSuspend) refers to port.o(i.vPortEnterCritical) for vPortEnterCritical
    tasks.o(i.vTaskSuspend) refers to list.o(i.uxListRemove) for uxListRemove
    tasks.o(i.vTaskSuspend) refers to list.o(i.vListInsertEnd) for vListInsertEnd
    tasks.o(i.vTaskSuspend) refers to port.o(i.vPortExitCritical) for vPortExitCritical
    tasks.o(i.vTaskSuspend) refers to tasks.o(i.prvResetNextTaskUnblockTime) for prvResetNextTaskUnblockTime
    tasks.o(i.vTaskSuspend) refers to tasks.o(i.vTaskSwitchContext) for vTaskSwitchContext
    tasks.o(i.vTaskSuspend) refers to tasks.o(.data) for pxCurrentTCB
    tasks.o(i.vTaskSuspend) refers to tasks.o(.bss) for pxReadyTasksLists
    tasks.o(i.vTaskSuspendAll) refers to tasks.o(.data) for uxSchedulerSuspended
    tasks.o(i.vTaskSwitchContext) refers to tasks.o(.data) for uxSchedulerSuspended
    tasks.o(i.vTaskSwitchContext) refers to tasks.o(.bss) for pxReadyTasksLists
    tasks.o(i.xTaskCheckForTimeOut) refers to port.o(i.vPortEnterCritical) for vPortEnterCritical
    tasks.o(i.xTaskCheckForTimeOut) refers to tasks.o(i.vTaskSetTimeOutState) for vTaskSetTimeOutState
    tasks.o(i.xTaskCheckForTimeOut) refers to port.o(i.vPortExitCritical) for vPortExitCritical
    tasks.o(i.xTaskCheckForTimeOut) refers to tasks.o(.data) for xTickCount
    tasks.o(i.xTaskCreate) refers to heap_4.o(i.pvPortMalloc) for pvPortMalloc
    tasks.o(i.xTaskCreate) refers to heap_4.o(i.vPortFree) for vPortFree
    tasks.o(i.xTaskCreate) refers to tasks.o(i.prvInitialiseNewTask) for prvInitialiseNewTask
    tasks.o(i.xTaskCreate) refers to tasks.o(i.prvAddNewTaskToReadyList) for prvAddNewTaskToReadyList
    tasks.o(i.xTaskGenericNotify) refers to port.o(i.vPortEnterCritical) for vPortEnterCritical
    tasks.o(i.xTaskGenericNotify) refers to list.o(i.uxListRemove) for uxListRemove
    tasks.o(i.xTaskGenericNotify) refers to list.o(i.vListInsertEnd) for vListInsertEnd
    tasks.o(i.xTaskGenericNotify) refers to port.o(i.vPortExitCritical) for vPortExitCritical
    tasks.o(i.xTaskGenericNotify) refers to tasks.o(.data) for uxTopReadyPriority
    tasks.o(i.xTaskGenericNotify) refers to tasks.o(.bss) for pxReadyTasksLists
    tasks.o(i.xTaskGenericNotifyFromISR) refers to port.o(i.vPortValidateInterruptPriority) for vPortValidateInterruptPriority
    tasks.o(i.xTaskGenericNotifyFromISR) refers to list.o(i.uxListRemove) for uxListRemove
    tasks.o(i.xTaskGenericNotifyFromISR) refers to list.o(i.vListInsertEnd) for vListInsertEnd
    tasks.o(i.xTaskGenericNotifyFromISR) refers to tasks.o(.data) for uxSchedulerSuspended
    tasks.o(i.xTaskGenericNotifyFromISR) refers to tasks.o(.bss) for pxReadyTasksLists
    tasks.o(i.xTaskGetCurrentTaskHandle) refers to tasks.o(.data) for pxCurrentTCB
    tasks.o(i.xTaskGetTickCount) refers to tasks.o(.data) for xTickCount
    tasks.o(i.xTaskGetTickCountFromISR) refers to port.o(i.vPortValidateInterruptPriority) for vPortValidateInterruptPriority
    tasks.o(i.xTaskGetTickCountFromISR) refers to tasks.o(.data) for xTickCount
    tasks.o(i.xTaskIncrementTick) refers to tasks.o(i.prvResetNextTaskUnblockTime) for prvResetNextTaskUnblockTime
    tasks.o(i.xTaskIncrementTick) refers to list.o(i.uxListRemove) for uxListRemove
    tasks.o(i.xTaskIncrementTick) refers to list.o(i.vListInsertEnd) for vListInsertEnd
    tasks.o(i.xTaskIncrementTick) refers to tasks.o(.data) for uxSchedulerSuspended
    tasks.o(i.xTaskIncrementTick) refers to tasks.o(.bss) for pxReadyTasksLists
    tasks.o(i.xTaskNotifyStateClear) refers to port.o(i.vPortEnterCritical) for vPortEnterCritical
    tasks.o(i.xTaskNotifyStateClear) refers to port.o(i.vPortExitCritical) for vPortExitCritical
    tasks.o(i.xTaskNotifyStateClear) refers to tasks.o(.data) for pxCurrentTCB
    tasks.o(i.xTaskNotifyWait) refers to port.o(i.vPortEnterCritical) for vPortEnterCritical
    tasks.o(i.xTaskNotifyWait) refers to tasks.o(i.prvAddCurrentTaskToDelayedList) for prvAddCurrentTaskToDelayedList
    tasks.o(i.xTaskNotifyWait) refers to port.o(i.vPortExitCritical) for vPortExitCritical
    tasks.o(i.xTaskNotifyWait) refers to tasks.o(.data) for pxCurrentTCB
    tasks.o(i.xTaskPriorityDisinherit) refers to list.o(i.uxListRemove) for uxListRemove
    tasks.o(i.xTaskPriorityDisinherit) refers to list.o(i.vListInsertEnd) for vListInsertEnd
    tasks.o(i.xTaskPriorityDisinherit) refers to tasks.o(.data) for pxCurrentTCB
    tasks.o(i.xTaskPriorityDisinherit) refers to tasks.o(.bss) for pxReadyTasksLists
    tasks.o(i.xTaskRemoveFromEventList) refers to list.o(i.uxListRemove) for uxListRemove
    tasks.o(i.xTaskRemoveFromEventList) refers to list.o(i.vListInsertEnd) for vListInsertEnd
    tasks.o(i.xTaskRemoveFromEventList) refers to tasks.o(.data) for uxSchedulerSuspended
    tasks.o(i.xTaskRemoveFromEventList) refers to tasks.o(.bss) for pxReadyTasksLists
    tasks.o(i.xTaskRemoveFromUnorderedEventList) refers to list.o(i.uxListRemove) for uxListRemove
    tasks.o(i.xTaskRemoveFromUnorderedEventList) refers to list.o(i.vListInsertEnd) for vListInsertEnd
    tasks.o(i.xTaskRemoveFromUnorderedEventList) refers to tasks.o(.data) for uxSchedulerSuspended
    tasks.o(i.xTaskRemoveFromUnorderedEventList) refers to tasks.o(.bss) for pxReadyTasksLists
    tasks.o(i.xTaskResumeAll) refers to port.o(i.vPortEnterCritical) for vPortEnterCritical
    tasks.o(i.xTaskResumeAll) refers to list.o(i.uxListRemove) for uxListRemove
    tasks.o(i.xTaskResumeAll) refers to list.o(i.vListInsertEnd) for vListInsertEnd
    tasks.o(i.xTaskResumeAll) refers to tasks.o(i.prvResetNextTaskUnblockTime) for prvResetNextTaskUnblockTime
    tasks.o(i.xTaskResumeAll) refers to tasks.o(i.xTaskIncrementTick) for xTaskIncrementTick
    tasks.o(i.xTaskResumeAll) refers to port.o(i.vPortExitCritical) for vPortExitCritical
    tasks.o(i.xTaskResumeAll) refers to tasks.o(.data) for uxSchedulerSuspended
    tasks.o(i.xTaskResumeAll) refers to tasks.o(.bss) for xPendingReadyList
    tasks.o(i.xTaskResumeFromISR) refers to port.o(i.vPortValidateInterruptPriority) for vPortValidateInterruptPriority
    tasks.o(i.xTaskResumeFromISR) refers to tasks.o(i.prvTaskIsTaskSuspended) for prvTaskIsTaskSuspended
    tasks.o(i.xTaskResumeFromISR) refers to list.o(i.uxListRemove) for uxListRemove
    tasks.o(i.xTaskResumeFromISR) refers to list.o(i.vListInsertEnd) for vListInsertEnd
    tasks.o(i.xTaskResumeFromISR) refers to tasks.o(.data) for uxSchedulerSuspended
    tasks.o(i.xTaskResumeFromISR) refers to tasks.o(.bss) for pxReadyTasksLists
    queue.o(i.pcQueueGetName) refers to queue.o(.bss) for xQueueRegistry
    queue.o(i.prvCopyDataFromQueue) refers to memcpy.o(.text) for __aeabi_memcpy
    queue.o(i.prvCopyDataToQueue) refers to tasks.o(i.xTaskPriorityDisinherit) for xTaskPriorityDisinherit
    queue.o(i.prvCopyDataToQueue) refers to memcpy.o(.text) for __aeabi_memcpy
    queue.o(i.prvInitialiseMutex) refers to queue.o(i.xQueueGenericSend) for xQueueGenericSend
    queue.o(i.prvInitialiseNewQueue) refers to queue.o(i.xQueueGenericReset) for xQueueGenericReset
    queue.o(i.prvIsQueueEmpty) refers to port.o(i.vPortEnterCritical) for vPortEnterCritical
    queue.o(i.prvIsQueueEmpty) refers to port.o(i.vPortExitCritical) for vPortExitCritical
    queue.o(i.prvIsQueueFull) refers to port.o(i.vPortEnterCritical) for vPortEnterCritical
    queue.o(i.prvIsQueueFull) refers to port.o(i.vPortExitCritical) for vPortExitCritical
    queue.o(i.prvUnlockQueue) refers to port.o(i.vPortEnterCritical) for vPortEnterCritical
    queue.o(i.prvUnlockQueue) refers to tasks.o(i.xTaskRemoveFromEventList) for xTaskRemoveFromEventList
    queue.o(i.prvUnlockQueue) refers to tasks.o(i.vTaskMissedYield) for vTaskMissedYield
    queue.o(i.prvUnlockQueue) refers to port.o(i.vPortExitCritical) for vPortExitCritical
    queue.o(i.uxQueueMessagesWaiting) refers to port.o(i.vPortEnterCritical) for vPortEnterCritical
    queue.o(i.uxQueueMessagesWaiting) refers to port.o(i.vPortExitCritical) for vPortExitCritical
    queue.o(i.uxQueueSpacesAvailable) refers to port.o(i.vPortEnterCritical) for vPortEnterCritical
    queue.o(i.uxQueueSpacesAvailable) refers to port.o(i.vPortExitCritical) for vPortExitCritical
    queue.o(i.vQueueAddToRegistry) refers to queue.o(.bss) for xQueueRegistry
    queue.o(i.vQueueDelete) refers to queue.o(i.vQueueUnregisterQueue) for vQueueUnregisterQueue
    queue.o(i.vQueueDelete) refers to heap_4.o(i.vPortFree) for vPortFree
    queue.o(i.vQueueUnregisterQueue) refers to queue.o(.bss) for xQueueRegistry
    queue.o(i.xQueueCreateCountingSemaphore) refers to queue.o(i.xQueueGenericCreate) for xQueueGenericCreate
    queue.o(i.xQueueCreateMutex) refers to queue.o(i.xQueueGenericCreate) for xQueueGenericCreate
    queue.o(i.xQueueCreateMutex) refers to queue.o(i.prvInitialiseMutex) for prvInitialiseMutex
    queue.o(i.xQueueGenericCreate) refers to heap_4.o(i.pvPortMalloc) for pvPortMalloc
    queue.o(i.xQueueGenericCreate) refers to queue.o(i.prvInitialiseNewQueue) for prvInitialiseNewQueue
    queue.o(i.xQueueGenericReceive) refers to port.o(i.vPortEnterCritical) for vPortEnterCritical
    queue.o(i.xQueueGenericReceive) refers to queue.o(i.prvCopyDataFromQueue) for prvCopyDataFromQueue
    queue.o(i.xQueueGenericReceive) refers to tasks.o(i.pvTaskIncrementMutexHeldCount) for pvTaskIncrementMutexHeldCount
    queue.o(i.xQueueGenericReceive) refers to tasks.o(i.xTaskRemoveFromEventList) for xTaskRemoveFromEventList
    queue.o(i.xQueueGenericReceive) refers to port.o(i.vPortExitCritical) for vPortExitCritical
    queue.o(i.xQueueGenericReceive) refers to tasks.o(i.vTaskSetTimeOutState) for vTaskSetTimeOutState
    queue.o(i.xQueueGenericReceive) refers to tasks.o(i.vTaskSuspendAll) for vTaskSuspendAll
    queue.o(i.xQueueGenericReceive) refers to tasks.o(i.xTaskCheckForTimeOut) for xTaskCheckForTimeOut
    queue.o(i.xQueueGenericReceive) refers to queue.o(i.prvIsQueueEmpty) for prvIsQueueEmpty
    queue.o(i.xQueueGenericReceive) refers to tasks.o(i.vTaskPriorityInherit) for vTaskPriorityInherit
    queue.o(i.xQueueGenericReceive) refers to tasks.o(i.vTaskPlaceOnEventList) for vTaskPlaceOnEventList
    queue.o(i.xQueueGenericReceive) refers to queue.o(i.prvUnlockQueue) for prvUnlockQueue
    queue.o(i.xQueueGenericReceive) refers to tasks.o(i.xTaskResumeAll) for xTaskResumeAll
    queue.o(i.xQueueGenericReset) refers to port.o(i.vPortEnterCritical) for vPortEnterCritical
    queue.o(i.xQueueGenericReset) refers to tasks.o(i.xTaskRemoveFromEventList) for xTaskRemoveFromEventList
    queue.o(i.xQueueGenericReset) refers to list.o(i.vListInitialise) for vListInitialise
    queue.o(i.xQueueGenericReset) refers to port.o(i.vPortExitCritical) for vPortExitCritical
    queue.o(i.xQueueGenericSend) refers to port.o(i.vPortEnterCritical) for vPortEnterCritical
    queue.o(i.xQueueGenericSend) refers to queue.o(i.prvCopyDataToQueue) for prvCopyDataToQueue
    queue.o(i.xQueueGenericSend) refers to tasks.o(i.xTaskRemoveFromEventList) for xTaskRemoveFromEventList
    queue.o(i.xQueueGenericSend) refers to port.o(i.vPortExitCritical) for vPortExitCritical
    queue.o(i.xQueueGenericSend) refers to tasks.o(i.vTaskSetTimeOutState) for vTaskSetTimeOutState
    queue.o(i.xQueueGenericSend) refers to tasks.o(i.vTaskSuspendAll) for vTaskSuspendAll
    queue.o(i.xQueueGenericSend) refers to tasks.o(i.xTaskCheckForTimeOut) for xTaskCheckForTimeOut
    queue.o(i.xQueueGenericSend) refers to queue.o(i.prvIsQueueFull) for prvIsQueueFull
    queue.o(i.xQueueGenericSend) refers to tasks.o(i.vTaskPlaceOnEventList) for vTaskPlaceOnEventList
    queue.o(i.xQueueGenericSend) refers to queue.o(i.prvUnlockQueue) for prvUnlockQueue
    queue.o(i.xQueueGenericSend) refers to tasks.o(i.xTaskResumeAll) for xTaskResumeAll
    queue.o(i.xQueueGenericSendFromISR) refers to port.o(i.vPortValidateInterruptPriority) for vPortValidateInterruptPriority
    queue.o(i.xQueueGenericSendFromISR) refers to queue.o(i.prvCopyDataToQueue) for prvCopyDataToQueue
    queue.o(i.xQueueGenericSendFromISR) refers to tasks.o(i.xTaskRemoveFromEventList) for xTaskRemoveFromEventList
    queue.o(i.xQueueGiveFromISR) refers to port.o(i.vPortValidateInterruptPriority) for vPortValidateInterruptPriority
    queue.o(i.xQueueGiveFromISR) refers to tasks.o(i.xTaskRemoveFromEventList) for xTaskRemoveFromEventList
    queue.o(i.xQueueGiveMutexRecursive) refers to tasks.o(i.xTaskGetCurrentTaskHandle) for xTaskGetCurrentTaskHandle
    queue.o(i.xQueueGiveMutexRecursive) refers to queue.o(i.xQueueGenericSend) for xQueueGenericSend
    queue.o(i.xQueuePeekFromISR) refers to port.o(i.vPortValidateInterruptPriority) for vPortValidateInterruptPriority
    queue.o(i.xQueuePeekFromISR) refers to queue.o(i.prvCopyDataFromQueue) for prvCopyDataFromQueue
    queue.o(i.xQueueReceiveFromISR) refers to port.o(i.vPortValidateInterruptPriority) for vPortValidateInterruptPriority
    queue.o(i.xQueueReceiveFromISR) refers to queue.o(i.prvCopyDataFromQueue) for prvCopyDataFromQueue
    queue.o(i.xQueueReceiveFromISR) refers to tasks.o(i.xTaskRemoveFromEventList) for xTaskRemoveFromEventList
    queue.o(i.xQueueTakeMutexRecursive) refers to tasks.o(i.xTaskGetCurrentTaskHandle) for xTaskGetCurrentTaskHandle
    queue.o(i.xQueueTakeMutexRecursive) refers to queue.o(i.xQueueGenericReceive) for xQueueGenericReceive
    heap_4.o(i.prvHeapInit) refers to heap_4.o(.bss) for ucHeap
    heap_4.o(i.prvHeapInit) refers to heap_4.o(.data) for xStart
    heap_4.o(i.prvInsertBlockIntoFreeList) refers to heap_4.o(.data) for xStart
    heap_4.o(i.pvPortMalloc) refers to tasks.o(i.vTaskSuspendAll) for vTaskSuspendAll
    heap_4.o(i.pvPortMalloc) refers to heap_4.o(i.prvHeapInit) for prvHeapInit
    heap_4.o(i.pvPortMalloc) refers to heap_4.o(i.prvInsertBlockIntoFreeList) for prvInsertBlockIntoFreeList
    heap_4.o(i.pvPortMalloc) refers to tasks.o(i.xTaskResumeAll) for xTaskResumeAll
    heap_4.o(i.pvPortMalloc) refers to heap_4.o(.data) for pxEnd
    heap_4.o(i.vPortFree) refers to tasks.o(i.vTaskSuspendAll) for vTaskSuspendAll
    heap_4.o(i.vPortFree) refers to heap_4.o(i.prvInsertBlockIntoFreeList) for prvInsertBlockIntoFreeList
    heap_4.o(i.vPortFree) refers to tasks.o(i.xTaskResumeAll) for xTaskResumeAll
    heap_4.o(i.vPortFree) refers to heap_4.o(.data) for xBlockAllocatedBit
    heap_4.o(i.xPortGetFreeHeapSize) refers to heap_4.o(.data) for xFreeBytesRemaining
    heap_4.o(i.xPortGetMinimumEverFreeHeapSize) refers to heap_4.o(.data) for xMinimumEverFreeBytesRemaining
    port.o(.emb_text) refers to tasks.o(i.vTaskSwitchContext) for vTaskSwitchContext
    port.o(.emb_text) refers to tasks.o(.data) for pxCurrentTCB
    port.o(i.SysTick_Handler) refers to tasks.o(i.xTaskIncrementTick) for xTaskIncrementTick
    port.o(i.prvTaskExitError) refers to port.o(.data) for uxCriticalNesting
    port.o(i.pxPortInitialiseStack) refers to port.o(i.prvTaskExitError) for prvTaskExitError
    port.o(i.vPortEndScheduler) refers to port.o(.data) for uxCriticalNesting
    port.o(i.vPortEnterCritical) refers to port.o(.data) for uxCriticalNesting
    port.o(i.vPortExitCritical) refers to port.o(.data) for uxCriticalNesting
    port.o(i.vPortSetupTimerInterrupt) refers to system_stm32f4xx.o(.data) for SystemCoreClock
    port.o(i.vPortValidateInterruptPriority) refers to port.o(.emb_text) for vPortGetIPSR
    port.o(i.vPortValidateInterruptPriority) refers to port.o(.data) for ucMaxSysCallPriority
    port.o(i.xPortStartScheduler) refers to port.o(i.vPortSetupTimerInterrupt) for vPortSetupTimerInterrupt
    port.o(i.xPortStartScheduler) refers to port.o(.emb_text) for __asm___6_port_c_39a90d8d__prvEnableVFP
    port.o(i.xPortStartScheduler) refers to port.o(.data) for ucMaxSysCallPriority
    pow.o(i.__hardfp_pow) refers (Special) to iusefp.o(.text) for __I$use$fp
    pow.o(i.__hardfp_pow) refers to dunder.o(i.__mathlib_dbl_infnan2) for __mathlib_dbl_infnan2
    pow.o(i.__hardfp_pow) refers to errno.o(i.__set_errno) for __set_errno
    pow.o(i.__hardfp_pow) refers to dunder.o(i.__mathlib_dbl_divzero) for __mathlib_dbl_divzero
    pow.o(i.__hardfp_pow) refers to dunder.o(i.__mathlib_dbl_overflow) for __mathlib_dbl_overflow
    pow.o(i.__hardfp_pow) refers to ddiv.o(.text) for __aeabi_ddiv
    pow.o(i.__hardfp_pow) refers to sqrt.o(i.sqrt) for sqrt
    pow.o(i.__hardfp_pow) refers to fabs.o(i.fabs) for fabs
    pow.o(i.__hardfp_pow) refers to dflti.o(.text) for __aeabi_i2d
    pow.o(i.__hardfp_pow) refers to dunder.o(i.__mathlib_dbl_invalid) for __mathlib_dbl_invalid
    pow.o(i.__hardfp_pow) refers to dmul.o(.text) for __aeabi_dmul
    pow.o(i.__hardfp_pow) refers to dunder.o(i.__mathlib_dbl_underflow) for __mathlib_dbl_underflow
    pow.o(i.__hardfp_pow) refers to dadd.o(.text) for __aeabi_dsub
    pow.o(i.__hardfp_pow) refers to qnan.o(.constdata) for __mathlib_zero
    pow.o(i.__hardfp_pow) refers to poly.o(i.__kernel_poly) for __kernel_poly
    pow.o(i.__hardfp_pow) refers to pow.o(.constdata) for .constdata
    pow.o(i.__hardfp_pow) refers to cdrcmple.o(.text) for __aeabi_cdrcmple
    pow.o(i.__hardfp_pow) refers to dscalb.o(.text) for __ARM_scalbn
    pow.o(i.__hardfp_pow) refers to fpclassify.o(i.__ARM_fpclassify) for __ARM_fpclassify
    pow.o(i.__softfp_pow) refers (Special) to iusefp.o(.text) for __I$use$fp
    pow.o(i.__softfp_pow) refers to pow.o(i.__hardfp_pow) for __hardfp_pow
    pow.o(i.pow) refers (Special) to iusefp.o(.text) for __I$use$fp
    pow.o(i.pow) refers to pow.o(i.__hardfp_pow) for __hardfp_pow
    pow.o(.constdata) refers (Special) to iusefp.o(.text) for __I$use$fp
    pow_x.o(i.____hardfp_pow$lsc) refers (Special) to iusefp.o(.text) for __I$use$fp
    pow_x.o(i.____hardfp_pow$lsc) refers to dunder.o(i.__mathlib_dbl_infnan2) for __mathlib_dbl_infnan2
    pow_x.o(i.____hardfp_pow$lsc) refers to errno.o(i.__set_errno) for __set_errno
    pow_x.o(i.____hardfp_pow$lsc) refers to ddiv.o(.text) for __aeabi_ddiv
    pow_x.o(i.____hardfp_pow$lsc) refers to sqrt.o(i.sqrt) for sqrt
    pow_x.o(i.____hardfp_pow$lsc) refers to fabs.o(i.fabs) for fabs
    pow_x.o(i.____hardfp_pow$lsc) refers to dflti.o(.text) for __aeabi_i2d
    pow_x.o(i.____hardfp_pow$lsc) refers to dmul.o(.text) for __aeabi_dmul
    pow_x.o(i.____hardfp_pow$lsc) refers to dadd.o(.text) for __aeabi_dsub
    pow_x.o(i.____hardfp_pow$lsc) refers to qnan.o(.constdata) for __mathlib_zero
    pow_x.o(i.____hardfp_pow$lsc) refers to poly.o(i.__kernel_poly) for __kernel_poly
    pow_x.o(i.____hardfp_pow$lsc) refers to pow_x.o(.constdata) for .constdata
    pow_x.o(i.____hardfp_pow$lsc) refers to cdrcmple.o(.text) for __aeabi_cdrcmple
    pow_x.o(i.____hardfp_pow$lsc) refers to dscalb.o(.text) for __ARM_scalbn
    pow_x.o(i.____softfp_pow$lsc) refers (Special) to iusefp.o(.text) for __I$use$fp
    pow_x.o(i.____softfp_pow$lsc) refers to pow_x.o(i.____hardfp_pow$lsc) for ____hardfp_pow$lsc
    pow_x.o(i.__pow$lsc) refers (Special) to iusefp.o(.text) for __I$use$fp
    pow_x.o(i.__pow$lsc) refers to pow_x.o(i.____hardfp_pow$lsc) for ____hardfp_pow$lsc
    pow_x.o(.constdata) refers (Special) to iusefp.o(.text) for __I$use$fp
    strtod.o(i.__hardfp_strtod) refers (Special) to iusefp.o(.text) for __I$use$fp
    strtod.o(i.__hardfp_strtod) refers to strtod.o(.text) for __strtod_int
    strtod.o(i.__softfp_strtod) refers (Special) to iusefp.o(.text) for __I$use$fp
    strtod.o(i.__softfp_strtod) refers to strtod.o(.text) for __strtod_int
    strtod.o(i.strtod) refers (Special) to iusefp.o(.text) for __I$use$fp
    strtod.o(i.strtod) refers to strtod.o(.text) for __strtod_int
    entry.o(.ARM.Collect$$$$00000000) refers (Special) to entry10a.o(.ARM.Collect$$$$0000000D) for __rt_final_cpp
    entry.o(.ARM.Collect$$$$00000000) refers (Special) to entry11a.o(.ARM.Collect$$$$0000000F) for __rt_final_exit
    entry.o(.ARM.Collect$$$$00000000) refers (Special) to entry7b.o(.ARM.Collect$$$$00000008) for _main_clock
    entry.o(.ARM.Collect$$$$00000000) refers (Special) to entry8b.o(.ARM.Collect$$$$0000000A) for _main_cpp_init
    entry.o(.ARM.Collect$$$$00000000) refers (Special) to entry9a.o(.ARM.Collect$$$$0000000B) for _main_init
    entry.o(.ARM.Collect$$$$00000000) refers (Special) to entry5.o(.ARM.Collect$$$$00000004) for _main_scatterload
    entry.o(.ARM.Collect$$$$00000000) refers (Special) to entry2.o(.ARM.Collect$$$$00000001) for _main_stk
    localeconv.o(.text) refers to ilconv.o(.constdata) for __internal_lconv
    printfb.o(i.__0fprintf$bare) refers to printfb.o(i._printf_core) for _printf_core
    printfb.o(i.__0fprintf$bare) refers to usart2.o(i.fputc) for fputc
    printfb.o(i.__0printf$bare) refers to printfb.o(i._printf_core) for _printf_core
    printfb.o(i.__0printf$bare) refers to usart2.o(i.fputc) for fputc
    printfb.o(i.__0printf$bare) refers to usart2.o(.data) for __stdout
    printfb.o(i.__0snprintf$bare) refers to printfb.o(i._printf_core) for _printf_core
    printfb.o(i.__0snprintf$bare) refers to printfb.o(i._snputc) for _snputc
    printfb.o(i.__0sprintf$bare) refers to printfb.o(i._printf_core) for _printf_core
    printfb.o(i.__0sprintf$bare) refers to printfb.o(i._sputc) for _sputc
    printfb.o(i.__0vfprintf$bare) refers to printfb.o(i._printf_core) for _printf_core
    printfb.o(i.__0vfprintf$bare) refers to usart2.o(i.fputc) for fputc
    printfb.o(i.__0vprintf$bare) refers to printfb.o(i._printf_core) for _printf_core
    printfb.o(i.__0vprintf$bare) refers to usart2.o(i.fputc) for fputc
    printfb.o(i.__0vprintf$bare) refers to usart2.o(.data) for __stdout
    printfb.o(i.__0vsnprintf$bare) refers to printfb.o(i._printf_core) for _printf_core
    printfb.o(i.__0vsnprintf$bare) refers to printfb.o(i._snputc) for _snputc
    printfb.o(i.__0vsprintf$bare) refers to printfb.o(i._printf_core) for _printf_core
    printfb.o(i.__0vsprintf$bare) refers to printfb.o(i._sputc) for _sputc
    printf0.o(i.__0fprintf$0) refers to printf0.o(i._printf_core) for _printf_core
    printf0.o(i.__0fprintf$0) refers to usart2.o(i.fputc) for fputc
    printf0.o(i.__0printf$0) refers to printf0.o(i._printf_core) for _printf_core
    printf0.o(i.__0printf$0) refers to usart2.o(i.fputc) for fputc
    printf0.o(i.__0printf$0) refers to usart2.o(.data) for __stdout
    printf0.o(i.__0snprintf$0) refers to printf0.o(i._printf_core) for _printf_core
    printf0.o(i.__0snprintf$0) refers to printf0.o(i._snputc) for _snputc
    printf0.o(i.__0sprintf$0) refers to printf0.o(i._printf_core) for _printf_core
    printf0.o(i.__0sprintf$0) refers to printf0.o(i._sputc) for _sputc
    printf0.o(i.__0vfprintf$0) refers to printf0.o(i._printf_core) for _printf_core
    printf0.o(i.__0vfprintf$0) refers to usart2.o(i.fputc) for fputc
    printf0.o(i.__0vprintf$0) refers to printf0.o(i._printf_core) for _printf_core
    printf0.o(i.__0vprintf$0) refers to usart2.o(i.fputc) for fputc
    printf0.o(i.__0vprintf$0) refers to usart2.o(.data) for __stdout
    printf0.o(i.__0vsnprintf$0) refers to printf0.o(i._printf_core) for _printf_core
    printf0.o(i.__0vsnprintf$0) refers to printf0.o(i._snputc) for _snputc
    printf0.o(i.__0vsprintf$0) refers to printf0.o(i._printf_core) for _printf_core
    printf0.o(i.__0vsprintf$0) refers to printf0.o(i._sputc) for _sputc
    printf1.o(i.__0fprintf$1) refers to printf1.o(i._printf_core) for _printf_core
    printf1.o(i.__0fprintf$1) refers to usart2.o(i.fputc) for fputc
    printf1.o(i.__0printf$1) refers to printf1.o(i._printf_core) for _printf_core
    printf1.o(i.__0printf$1) refers to usart2.o(i.fputc) for fputc
    printf1.o(i.__0printf$1) refers to usart2.o(.data) for __stdout
    printf1.o(i.__0snprintf$1) refers to printf1.o(i._printf_core) for _printf_core
    printf1.o(i.__0snprintf$1) refers to printf1.o(i._snputc) for _snputc
    printf1.o(i.__0sprintf$1) refers to printf1.o(i._printf_core) for _printf_core
    printf1.o(i.__0sprintf$1) refers to printf1.o(i._sputc) for _sputc
    printf1.o(i.__0vfprintf$1) refers to printf1.o(i._printf_core) for _printf_core
    printf1.o(i.__0vfprintf$1) refers to usart2.o(i.fputc) for fputc
    printf1.o(i.__0vprintf$1) refers to printf1.o(i._printf_core) for _printf_core
    printf1.o(i.__0vprintf$1) refers to usart2.o(i.fputc) for fputc
    printf1.o(i.__0vprintf$1) refers to usart2.o(.data) for __stdout
    printf1.o(i.__0vsnprintf$1) refers to printf1.o(i._printf_core) for _printf_core
    printf1.o(i.__0vsnprintf$1) refers to printf1.o(i._snputc) for _snputc
    printf1.o(i.__0vsprintf$1) refers to printf1.o(i._printf_core) for _printf_core
    printf1.o(i.__0vsprintf$1) refers to printf1.o(i._sputc) for _sputc
    printf1.o(i._printf_core) refers to uidiv.o(.text) for __aeabi_uidivmod
    printf2.o(i.__0fprintf$2) refers to printf2.o(i._printf_core) for _printf_core
    printf2.o(i.__0fprintf$2) refers to usart2.o(i.fputc) for fputc
    printf2.o(i.__0printf$2) refers to printf2.o(i._printf_core) for _printf_core
    printf2.o(i.__0printf$2) refers to usart2.o(i.fputc) for fputc
    printf2.o(i.__0printf$2) refers to usart2.o(.data) for __stdout
    printf2.o(i.__0snprintf$2) refers to printf2.o(i._printf_core) for _printf_core
    printf2.o(i.__0snprintf$2) refers to printf2.o(i._snputc) for _snputc
    printf2.o(i.__0sprintf$2) refers to printf2.o(i._printf_core) for _printf_core
    printf2.o(i.__0sprintf$2) refers to printf2.o(i._sputc) for _sputc
    printf2.o(i.__0vfprintf$2) refers to printf2.o(i._printf_core) for _printf_core
    printf2.o(i.__0vfprintf$2) refers to usart2.o(i.fputc) for fputc
    printf2.o(i.__0vprintf$2) refers to printf2.o(i._printf_core) for _printf_core
    printf2.o(i.__0vprintf$2) refers to usart2.o(i.fputc) for fputc
    printf2.o(i.__0vprintf$2) refers to usart2.o(.data) for __stdout
    printf2.o(i.__0vsnprintf$2) refers to printf2.o(i._printf_core) for _printf_core
    printf2.o(i.__0vsnprintf$2) refers to printf2.o(i._snputc) for _snputc
    printf2.o(i.__0vsprintf$2) refers to printf2.o(i._printf_core) for _printf_core
    printf2.o(i.__0vsprintf$2) refers to printf2.o(i._sputc) for _sputc
    printf3.o(i.__0fprintf$3) refers to printf3.o(i._printf_core) for _printf_core
    printf3.o(i.__0fprintf$3) refers to usart2.o(i.fputc) for fputc
    printf3.o(i.__0printf$3) refers to printf3.o(i._printf_core) for _printf_core
    printf3.o(i.__0printf$3) refers to usart2.o(i.fputc) for fputc
    printf3.o(i.__0printf$3) refers to usart2.o(.data) for __stdout
    printf3.o(i.__0snprintf$3) refers to printf3.o(i._printf_core) for _printf_core
    printf3.o(i.__0snprintf$3) refers to printf3.o(i._snputc) for _snputc
    printf3.o(i.__0sprintf$3) refers to printf3.o(i._printf_core) for _printf_core
    printf3.o(i.__0sprintf$3) refers to printf3.o(i._sputc) for _sputc
    printf3.o(i.__0vfprintf$3) refers to printf3.o(i._printf_core) for _printf_core
    printf3.o(i.__0vfprintf$3) refers to usart2.o(i.fputc) for fputc
    printf3.o(i.__0vprintf$3) refers to printf3.o(i._printf_core) for _printf_core
    printf3.o(i.__0vprintf$3) refers to usart2.o(i.fputc) for fputc
    printf3.o(i.__0vprintf$3) refers to usart2.o(.data) for __stdout
    printf3.o(i.__0vsnprintf$3) refers to printf3.o(i._printf_core) for _printf_core
    printf3.o(i.__0vsnprintf$3) refers to printf3.o(i._snputc) for _snputc
    printf3.o(i.__0vsprintf$3) refers to printf3.o(i._printf_core) for _printf_core
    printf3.o(i.__0vsprintf$3) refers to printf3.o(i._sputc) for _sputc
    printf3.o(i._printf_core) refers to uidiv.o(.text) for __aeabi_uidivmod
    printf4.o(i.__0fprintf$4) refers to printf4.o(i._printf_core) for _printf_core
    printf4.o(i.__0fprintf$4) refers to usart2.o(i.fputc) for fputc
    printf4.o(i.__0printf$4) refers to printf4.o(i._printf_core) for _printf_core
    printf4.o(i.__0printf$4) refers to usart2.o(i.fputc) for fputc
    printf4.o(i.__0printf$4) refers to usart2.o(.data) for __stdout
    printf4.o(i.__0snprintf$4) refers to printf4.o(i._printf_core) for _printf_core
    printf4.o(i.__0snprintf$4) refers to printf4.o(i._snputc) for _snputc
    printf4.o(i.__0sprintf$4) refers to printf4.o(i._printf_core) for _printf_core
    printf4.o(i.__0sprintf$4) refers to printf4.o(i._sputc) for _sputc
    printf4.o(i.__0vfprintf$4) refers to printf4.o(i._printf_core) for _printf_core
    printf4.o(i.__0vfprintf$4) refers to usart2.o(i.fputc) for fputc
    printf4.o(i.__0vprintf$4) refers to printf4.o(i._printf_core) for _printf_core
    printf4.o(i.__0vprintf$4) refers to usart2.o(i.fputc) for fputc
    printf4.o(i.__0vprintf$4) refers to usart2.o(.data) for __stdout
    printf4.o(i.__0vsnprintf$4) refers to printf4.o(i._printf_core) for _printf_core
    printf4.o(i.__0vsnprintf$4) refers to printf4.o(i._snputc) for _snputc
    printf4.o(i.__0vsprintf$4) refers to printf4.o(i._printf_core) for _printf_core
    printf4.o(i.__0vsprintf$4) refers to printf4.o(i._sputc) for _sputc
    printf4.o(i._printf_core) refers to uldiv.o(.text) for __aeabi_uldivmod
    printf5.o(i.__0fprintf$5) refers to printf5.o(i._printf_core) for _printf_core
    printf5.o(i.__0fprintf$5) refers to usart2.o(i.fputc) for fputc
    printf5.o(i.__0printf$5) refers to printf5.o(i._printf_core) for _printf_core
    printf5.o(i.__0printf$5) refers to usart2.o(i.fputc) for fputc
    printf5.o(i.__0printf$5) refers to usart2.o(.data) for __stdout
    printf5.o(i.__0snprintf$5) refers to printf5.o(i._printf_core) for _printf_core
    printf5.o(i.__0snprintf$5) refers to printf5.o(i._snputc) for _snputc
    printf5.o(i.__0sprintf$5) refers to printf5.o(i._printf_core) for _printf_core
    printf5.o(i.__0sprintf$5) refers to printf5.o(i._sputc) for _sputc
    printf5.o(i.__0vfprintf$5) refers to printf5.o(i._printf_core) for _printf_core
    printf5.o(i.__0vfprintf$5) refers to usart2.o(i.fputc) for fputc
    printf5.o(i.__0vprintf$5) refers to printf5.o(i._printf_core) for _printf_core
    printf5.o(i.__0vprintf$5) refers to usart2.o(i.fputc) for fputc
    printf5.o(i.__0vprintf$5) refers to usart2.o(.data) for __stdout
    printf5.o(i.__0vsnprintf$5) refers to printf5.o(i._printf_core) for _printf_core
    printf5.o(i.__0vsnprintf$5) refers to printf5.o(i._snputc) for _snputc
    printf5.o(i.__0vsprintf$5) refers to printf5.o(i._printf_core) for _printf_core
    printf5.o(i.__0vsprintf$5) refers to printf5.o(i._sputc) for _sputc
    printf5.o(i._printf_core) refers to uldiv.o(.text) for __aeabi_uldivmod
    printf6.o(i.__0fprintf$6) refers to printf6.o(i._printf_core) for _printf_core
    printf6.o(i.__0fprintf$6) refers to usart2.o(i.fputc) for fputc
    printf6.o(i.__0printf$6) refers to printf6.o(i._printf_core) for _printf_core
    printf6.o(i.__0printf$6) refers to usart2.o(i.fputc) for fputc
    printf6.o(i.__0printf$6) refers to usart2.o(.data) for __stdout
    printf6.o(i.__0snprintf$6) refers to printf6.o(i._printf_core) for _printf_core
    printf6.o(i.__0snprintf$6) refers to printf6.o(i._snputc) for _snputc
    printf6.o(i.__0sprintf$6) refers to printf6.o(i._printf_core) for _printf_core
    printf6.o(i.__0sprintf$6) refers to printf6.o(i._sputc) for _sputc
    printf6.o(i.__0vfprintf$6) refers to printf6.o(i._printf_core) for _printf_core
    printf6.o(i.__0vfprintf$6) refers to usart2.o(i.fputc) for fputc
    printf6.o(i.__0vprintf$6) refers to printf6.o(i._printf_core) for _printf_core
    printf6.o(i.__0vprintf$6) refers to usart2.o(i.fputc) for fputc
    printf6.o(i.__0vprintf$6) refers to usart2.o(.data) for __stdout
    printf6.o(i.__0vsnprintf$6) refers to printf6.o(i._printf_core) for _printf_core
    printf6.o(i.__0vsnprintf$6) refers to printf6.o(i._snputc) for _snputc
    printf6.o(i.__0vsprintf$6) refers to printf6.o(i._printf_core) for _printf_core
    printf6.o(i.__0vsprintf$6) refers to printf6.o(i._sputc) for _sputc
    printf6.o(i._printf_core) refers to printf6.o(i._printf_pre_padding) for _printf_pre_padding
    printf6.o(i._printf_core) refers to uidiv.o(.text) for __aeabi_uidivmod
    printf6.o(i._printf_core) refers to printf6.o(i._printf_post_padding) for _printf_post_padding
    printf7.o(i.__0fprintf$7) refers to printf7.o(i._printf_core) for _printf_core
    printf7.o(i.__0fprintf$7) refers to usart2.o(i.fputc) for fputc
    printf7.o(i.__0printf$7) refers to printf7.o(i._printf_core) for _printf_core
    printf7.o(i.__0printf$7) refers to usart2.o(i.fputc) for fputc
    printf7.o(i.__0printf$7) refers to usart2.o(.data) for __stdout
    printf7.o(i.__0snprintf$7) refers to printf7.o(i._printf_core) for _printf_core
    printf7.o(i.__0snprintf$7) refers to printf7.o(i._snputc) for _snputc
    printf7.o(i.__0sprintf$7) refers to printf7.o(i._printf_core) for _printf_core
    printf7.o(i.__0sprintf$7) refers to printf7.o(i._sputc) for _sputc
    printf7.o(i.__0vfprintf$7) refers to printf7.o(i._printf_core) for _printf_core
    printf7.o(i.__0vfprintf$7) refers to usart2.o(i.fputc) for fputc
    printf7.o(i.__0vprintf$7) refers to printf7.o(i._printf_core) for _printf_core
    printf7.o(i.__0vprintf$7) refers to usart2.o(i.fputc) for fputc
    printf7.o(i.__0vprintf$7) refers to usart2.o(.data) for __stdout
    printf7.o(i.__0vsnprintf$7) refers to printf7.o(i._printf_core) for _printf_core
    printf7.o(i.__0vsnprintf$7) refers to printf7.o(i._snputc) for _snputc
    printf7.o(i.__0vsprintf$7) refers to printf7.o(i._printf_core) for _printf_core
    printf7.o(i.__0vsprintf$7) refers to printf7.o(i._sputc) for _sputc
    printf7.o(i._printf_core) refers to printf7.o(i._printf_pre_padding) for _printf_pre_padding
    printf7.o(i._printf_core) refers to uldiv.o(.text) for __aeabi_uldivmod
    printf7.o(i._printf_core) refers to printf7.o(i._printf_post_padding) for _printf_post_padding
    printf8.o(i.__0fprintf$8) refers to printf8.o(i._printf_core) for _printf_core
    printf8.o(i.__0fprintf$8) refers to usart2.o(i.fputc) for fputc
    printf8.o(i.__0printf$8) refers to printf8.o(i._printf_core) for _printf_core
    printf8.o(i.__0printf$8) refers to usart2.o(i.fputc) for fputc
    printf8.o(i.__0printf$8) refers to usart2.o(.data) for __stdout
    printf8.o(i.__0snprintf$8) refers to printf8.o(i._printf_core) for _printf_core
    printf8.o(i.__0snprintf$8) refers to printf8.o(i._snputc) for _snputc
    printf8.o(i.__0sprintf$8) refers to printf8.o(i._printf_core) for _printf_core
    printf8.o(i.__0sprintf$8) refers to printf8.o(i._sputc) for _sputc
    printf8.o(i.__0vfprintf$8) refers to printf8.o(i._printf_core) for _printf_core
    printf8.o(i.__0vfprintf$8) refers to usart2.o(i.fputc) for fputc
    printf8.o(i.__0vprintf$8) refers to printf8.o(i._printf_core) for _printf_core
    printf8.o(i.__0vprintf$8) refers to usart2.o(i.fputc) for fputc
    printf8.o(i.__0vprintf$8) refers to usart2.o(.data) for __stdout
    printf8.o(i.__0vsnprintf$8) refers to printf8.o(i._printf_core) for _printf_core
    printf8.o(i.__0vsnprintf$8) refers to printf8.o(i._snputc) for _snputc
    printf8.o(i.__0vsprintf$8) refers to printf8.o(i._printf_core) for _printf_core
    printf8.o(i.__0vsprintf$8) refers to printf8.o(i._sputc) for _sputc
    printf8.o(i._printf_core) refers to printf8.o(i._printf_pre_padding) for _printf_pre_padding
    printf8.o(i._printf_core) refers to uldiv.o(.text) for __aeabi_uldivmod
    printf8.o(i._printf_core) refers to printf8.o(i._printf_post_padding) for _printf_post_padding
    printfa.o(i.__0fprintf) refers (Special) to iusefp.o(.text) for __I$use$fp
    printfa.o(i.__0fprintf) refers to printfa.o(i._printf_core) for _printf_core
    printfa.o(i.__0fprintf) refers to usart2.o(i.fputc) for fputc
    printfa.o(i.__0printf) refers (Special) to iusefp.o(.text) for __I$use$fp
    printfa.o(i.__0printf) refers to printfa.o(i._printf_core) for _printf_core
    printfa.o(i.__0printf) refers to usart2.o(i.fputc) for fputc
    printfa.o(i.__0printf) refers to usart2.o(.data) for __stdout
    printfa.o(i.__0snprintf) refers (Special) to iusefp.o(.text) for __I$use$fp
    printfa.o(i.__0snprintf) refers to printfa.o(i._printf_core) for _printf_core
    printfa.o(i.__0snprintf) refers to printfa.o(i._snputc) for _snputc
    printfa.o(i.__0sprintf) refers (Special) to iusefp.o(.text) for __I$use$fp
    printfa.o(i.__0sprintf) refers to printfa.o(i._printf_core) for _printf_core
    printfa.o(i.__0sprintf) refers to printfa.o(i._sputc) for _sputc
    printfa.o(i.__0vfprintf) refers (Special) to iusefp.o(.text) for __I$use$fp
    printfa.o(i.__0vfprintf) refers to printfa.o(i._printf_core) for _printf_core
    printfa.o(i.__0vfprintf) refers to usart2.o(i.fputc) for fputc
    printfa.o(i.__0vprintf) refers (Special) to iusefp.o(.text) for __I$use$fp
    printfa.o(i.__0vprintf) refers to printfa.o(i._printf_core) for _printf_core
    printfa.o(i.__0vprintf) refers to usart2.o(i.fputc) for fputc
    printfa.o(i.__0vprintf) refers to usart2.o(.data) for __stdout
    printfa.o(i.__0vsnprintf) refers (Special) to iusefp.o(.text) for __I$use$fp
    printfa.o(i.__0vsnprintf) refers to printfa.o(i._printf_core) for _printf_core
    printfa.o(i.__0vsnprintf) refers to printfa.o(i._snputc) for _snputc
    printfa.o(i.__0vsprintf) refers (Special) to iusefp.o(.text) for __I$use$fp
    printfa.o(i.__0vsprintf) refers to printfa.o(i._printf_core) for _printf_core
    printfa.o(i.__0vsprintf) refers to printfa.o(i._sputc) for _sputc
    printfa.o(i._fp_digits) refers (Special) to iusefp.o(.text) for __I$use$fp
    printfa.o(i._fp_digits) refers to dmul.o(.text) for __aeabi_dmul
    printfa.o(i._fp_digits) refers to ddiv.o(.text) for __aeabi_ddiv
    printfa.o(i._fp_digits) refers to cdrcmple.o(.text) for __aeabi_cdrcmple
    printfa.o(i._fp_digits) refers to dadd.o(.text) for __aeabi_dadd
    printfa.o(i._fp_digits) refers to dfixul.o(.text) for __aeabi_d2ulz
    printfa.o(i._fp_digits) refers to uldiv.o(.text) for __aeabi_uldivmod
    printfa.o(i._printf_core) refers (Special) to iusefp.o(.text) for __I$use$fp
    printfa.o(i._printf_core) refers to printfa.o(i._printf_pre_padding) for _printf_pre_padding
    printfa.o(i._printf_core) refers to uldiv.o(.text) for __aeabi_uldivmod
    printfa.o(i._printf_core) refers to printfa.o(i._printf_post_padding) for _printf_post_padding
    printfa.o(i._printf_core) refers to printfa.o(i._fp_digits) for _fp_digits
    printfa.o(i._printf_core) refers to uidiv.o(.text) for __aeabi_uidivmod
    printfa.o(i._printf_post_padding) refers (Special) to iusefp.o(.text) for __I$use$fp
    printfa.o(i._printf_pre_padding) refers (Special) to iusefp.o(.text) for __I$use$fp
    printfa.o(i._snputc) refers (Special) to iusefp.o(.text) for __I$use$fp
    printfa.o(i._sputc) refers (Special) to iusefp.o(.text) for __I$use$fp
    malloc.o(i.free) refers to mvars.o(.data) for __microlib_freelist
    malloc.o(i.malloc) refers to mvars.o(.data) for __microlib_freelist_initialised
    malloc.o(i.malloc) refers to mvars.o(.data) for __microlib_freelist
    malloc.o(i.malloc) refers to startup_stm32f40_41xxx.o(HEAP) for __heap_base
    mallocr.o(i.__free$realloc) refers to mvars.o(.data) for __microlib_freelist
    mallocr.o(i.__malloc$realloc) refers to mallocr.o(i.internal_alloc) for internal_alloc
    mallocr.o(i.__malloc$realloc) refers to mvars.o(.data) for __microlib_freelist_initialised
    mallocr.o(i.__malloc$realloc) refers to startup_stm32f40_41xxx.o(HEAP) for __heap_base
    mallocr.o(i.__malloc$realloc) refers to mvars.o(.data) for __microlib_freelist
    mallocr.o(i.internal_alloc) refers to memcpy.o(.text) for __aeabi_memcpy
    mallocr.o(i.internal_alloc) refers to mvars.o(.data) for __microlib_freelist
    mallocr.o(i.realloc) refers to mallocr.o(i.__free$realloc) for free
    mallocr.o(i.realloc) refers to mallocr.o(i.internal_alloc) for internal_alloc
    mallocr.o(i.realloc) refers to mallocr.o(i.__malloc$realloc) for malloc
    mallocr.o(i.realloc) refers to mvars.o(.data) for __microlib_freelist
    malloca.o(i.__aligned_malloc) refers to mvars.o(.data) for __microlib_freelist_initialised
    malloca.o(i.__aligned_malloc) refers to mvars.o(.data) for __microlib_freelist
    malloca.o(i.__aligned_malloc) refers to startup_stm32f40_41xxx.o(HEAP) for __heap_base
    malloca.o(i.__free$memalign) refers to mvars.o(.data) for __microlib_freelist
    malloca.o(i.__malloc$memalign) refers to malloca.o(i.__aligned_malloc) for __aligned_malloc
    mallocra.o(i.__aligned_malloc$realloc) refers to mallocra.o(i.internal_alloc) for internal_alloc
    mallocra.o(i.__aligned_malloc$realloc) refers to mvars.o(.data) for __microlib_freelist_initialised
    mallocra.o(i.__aligned_malloc$realloc) refers to startup_stm32f40_41xxx.o(HEAP) for __heap_base
    mallocra.o(i.__aligned_malloc$realloc) refers to mvars.o(.data) for __microlib_freelist
    mallocra.o(i.__free$realloc$memalign) refers to mvars.o(.data) for __microlib_freelist
    mallocra.o(i.__malloc$realloc$memalign) refers to mallocra.o(i.__aligned_malloc$realloc) for __aligned_malloc$realloc
    mallocra.o(i.__realloc$memalign) refers to mallocra.o(i.__free$realloc$memalign) for __free$realloc$memalign
    mallocra.o(i.__realloc$memalign) refers to mallocra.o(i.internal_alloc) for internal_alloc
    mallocra.o(i.__realloc$memalign) refers to mallocra.o(i.__malloc$realloc$memalign) for __malloc$realloc$memalign
    mallocra.o(i.__realloc$memalign) refers to mvars.o(.data) for __microlib_freelist
    mallocra.o(i.internal_alloc) refers to memcpy.o(.text) for __aeabi_memcpy
    mallocra.o(i.internal_alloc) refers to mvars.o(.data) for __microlib_freelist
    sscanf.o(.text) refers (Special) to _scanf_int.o(.text) for _scanf_int
    sscanf.o(.text) refers (Special) to _scanf_longlong.o(.text) for _scanf_longlong
    sscanf.o(.text) refers (Special) to scanf_fp.o(.text) for _scanf_real
    sscanf.o(.text) refers (Special) to _scanf_str.o(.text) for _scanf_string
    sscanf.o(.text) refers to scanf_char.o(.text) for __vfscanf_char
    sscanf.o(.text) refers to _sgetc.o(.text) for _sgetc
    atoi.o(.text) refers to errno.o(i.__aeabi_errno_addr) for __aeabi_errno_addr
    atoi.o(.text) refers to strtol.o(.text) for strtol
    dadd.o(.text) refers (Special) to iusefp.o(.text) for __I$use$fp
    dadd.o(.text) refers to llshl.o(.text) for __aeabi_llsl
    dadd.o(.text) refers to llsshr.o(.text) for __aeabi_lasr
    dadd.o(.text) refers to depilogue.o(.text) for _double_epilogue
    dmul.o(.text) refers (Special) to iusefp.o(.text) for __I$use$fp
    dmul.o(.text) refers to depilogue.o(.text) for _double_epilogue
    ddiv.o(.text) refers (Special) to iusefp.o(.text) for __I$use$fp
    ddiv.o(.text) refers to depilogue.o(.text) for _double_round
    dflti.o(.text) refers (Special) to iusefp.o(.text) for __I$use$fp
    dflti.o(.text) refers to depilogue.o(.text) for _double_epilogue
    dfltui.o(.text) refers (Special) to iusefp.o(.text) for __I$use$fp
    dfltui.o(.text) refers to depilogue.o(.text) for _double_epilogue
    dfixi.o(.text) refers (Special) to iusefp.o(.text) for __I$use$fp
    dfixi.o(.text) refers to llushr.o(.text) for __aeabi_llsr
    f2d.o(.text) refers (Special) to iusefp.o(.text) for __I$use$fp
    cdcmple.o(.text) refers (Special) to iusefp.o(.text) for __I$use$fp
    cdrcmple.o(.text) refers (Special) to iusefp.o(.text) for __I$use$fp
    d2f.o(.text) refers (Special) to iusefp.o(.text) for __I$use$fp
    d2f.o(.text) refers to fepilogue.o(.text) for _float_round
    dunder.o(i.__mathlib_dbl_divzero) refers to ddiv.o(.text) for __aeabi_ddiv
    dunder.o(i.__mathlib_dbl_infnan) refers to dadd.o(.text) for __aeabi_dadd
    dunder.o(i.__mathlib_dbl_infnan2) refers to dadd.o(.text) for __aeabi_dadd
    dunder.o(i.__mathlib_dbl_invalid) refers to ddiv.o(.text) for __aeabi_ddiv
    dunder.o(i.__mathlib_dbl_overflow) refers to dmul.o(.text) for __aeabi_dmul
    dunder.o(i.__mathlib_dbl_posinfnan) refers to dmul.o(.text) for __aeabi_dmul
    dunder.o(i.__mathlib_dbl_underflow) refers to dmul.o(.text) for __aeabi_dmul
    fabs.o(i.__hardfp_fabs) refers (Special) to iusefp.o(.text) for __I$use$fp
    fabs.o(i.__softfp_fabs) refers (Special) to iusefp.o(.text) for __I$use$fp
    fabs.o(i.fabs) refers (Special) to iusefp.o(.text) for __I$use$fp
    fpclassify.o(i.__ARM_fpclassify) refers (Special) to iusefp.o(.text) for __I$use$fp
    poly.o(i.__kernel_poly) refers (Special) to iusefp.o(.text) for __I$use$fp
    poly.o(i.__kernel_poly) refers to dmul.o(.text) for __aeabi_dmul
    poly.o(i.__kernel_poly) refers to dadd.o(.text) for __aeabi_dadd
    qnan.o(.constdata) refers (Special) to iusefp.o(.text) for __I$use$fp
    sqrt.o(i.__hardfp_sqrt) refers (Special) to iusefp.o(.text) for __I$use$fp
    sqrt.o(i.__hardfp_sqrt) refers to dsqrt.o(.text) for _dsqrt
    sqrt.o(i.__hardfp_sqrt) refers to errno.o(i.__set_errno) for __set_errno
    sqrt.o(i.__softfp_sqrt) refers (Special) to iusefp.o(.text) for __I$use$fp
    sqrt.o(i.__softfp_sqrt) refers to dsqrt.o(.text) for _dsqrt
    sqrt.o(i.__softfp_sqrt) refers to errno.o(i.__set_errno) for __set_errno
    sqrt.o(i.sqrt) refers (Special) to iusefp.o(.text) for __I$use$fp
    sqrt.o(i.sqrt) refers to dsqrt.o(.text) for _dsqrt
    sqrt.o(i.sqrt) refers to errno.o(i.__set_errno) for __set_errno
    sqrt_x.o(i.____hardfp_sqrt$lsc) refers (Special) to iusefp.o(.text) for __I$use$fp
    sqrt_x.o(i.____hardfp_sqrt$lsc) refers to cdcmple.o(.text) for __aeabi_cdcmple
    sqrt_x.o(i.____hardfp_sqrt$lsc) refers to errno.o(i.__set_errno) for __set_errno
    sqrt_x.o(i.____hardfp_sqrt$lsc) refers to dsqrt.o(.text) for _dsqrt
    sqrt_x.o(i.____softfp_sqrt$lsc) refers (Special) to iusefp.o(.text) for __I$use$fp
    sqrt_x.o(i.____softfp_sqrt$lsc) refers to cdcmple.o(.text) for __aeabi_cdcmple
    sqrt_x.o(i.____softfp_sqrt$lsc) refers to errno.o(i.__set_errno) for __set_errno
    sqrt_x.o(i.____softfp_sqrt$lsc) refers to dsqrt.o(.text) for _dsqrt
    sqrt_x.o(i.__sqrt$lsc) refers (Special) to iusefp.o(.text) for __I$use$fp
    sqrt_x.o(i.__sqrt$lsc) refers to cdcmple.o(.text) for __aeabi_cdcmple
    sqrt_x.o(i.__sqrt$lsc) refers to errno.o(i.__set_errno) for __set_errno
    sqrt_x.o(i.__sqrt$lsc) refers to dsqrt.o(.text) for _dsqrt
    entry2.o(.ARM.Collect$$$$00000001) refers to entry2.o(.ARM.Collect$$$$00002712) for __lit__00000000
    entry2.o(.ARM.Collect$$$$00002712) refers to startup_stm32f40_41xxx.o(STACK) for __initial_sp
    entry2.o(__vectab_stack_and_reset_area) refers to startup_stm32f40_41xxx.o(STACK) for __initial_sp
    entry2.o(__vectab_stack_and_reset_area) refers to entry.o(.ARM.Collect$$$$00000000) for __main
    entry5.o(.ARM.Collect$$$$00000004) refers to init.o(.text) for __scatterload
    entry9a.o(.ARM.Collect$$$$0000000B) refers to main.o(i.main) for main
    entry9b.o(.ARM.Collect$$$$0000000C) refers to main.o(i.main) for main
    uldiv.o(.text) refers to llushr.o(.text) for __aeabi_llsr
    uldiv.o(.text) refers to llshl.o(.text) for __aeabi_llsl
    ilconv.o(.constdata) refers to ilconv.o(.conststring) for .conststring
    errno.o(i.__aeabi_errno_addr) refers to errno.o(.data) for .data
    errno.o(i.__read_errno) refers to errno.o(.data) for .data
    errno.o(i.__set_errno) refers to errno.o(.data) for .data
    _scanf_longlong.o(.text) refers to _chval.o(.text) for _chval
    _scanf_int.o(.text) refers to _chval.o(.text) for _chval
    scanf_fp.o(.text) refers (Special) to iusefp.o(.text) for __I$use$fp
    scanf_fp.o(.text) refers to dfltul.o(.text) for __aeabi_ul2d
    scanf_fp.o(.text) refers to dmul.o(.text) for __aeabi_dmul
    scanf_fp.o(.text) refers to ddiv.o(.text) for __aeabi_ddiv
    scanf_fp.o(.text) refers to scanf_fp.o(i._is_digit) for _is_digit
    scanf_fp.o(.text) refers to d2f.o(.text) for __aeabi_d2f
    scanf_char.o(.text) refers to _scanf.o(.text) for __vfscanf
    scanf_char.o(.text) refers to isspace_o.o(.text) for isspace
    strtod.o(.text) refers to scanf_fp.o(.text) for _scanf_real
    strtod.o(.text) refers to _sgetc.o(.text) for _sgetc
    strtod.o(.text) refers to isspace_o.o(.text) for isspace
    strtol.o(.text) refers to ctype_o.o(.text) for __rt_ctype_table
    strtol.o(.text) refers to _strtoul.o(.text) for _strtoul
    strtol.o(.text) refers to errno.o(i.__aeabi_errno_addr) for __aeabi_errno_addr
    depilogue.o(.text) refers to llshl.o(.text) for __aeabi_llsl
    depilogue.o(.text) refers to llushr.o(.text) for __aeabi_llsr
    dfixul.o(.text) refers to llushr.o(.text) for __aeabi_llsr
    dfixul.o(.text) refers to llshl.o(.text) for __aeabi_llsl
    init.o(.text) refers to entry5.o(.ARM.Collect$$$$00000004) for __main_after_scatterload
    isspace_c.o(.text) refers to ctype_c.o(.text) for __ctype_lookup
    ctype_o.o(.text) refers to ctype_o.o(.constdata) for .constdata
    ctype_o.o(.constdata) refers to ctype_o.o(.constdata) for __ctype_table
    isalnum_o.o(.text) refers to ctype_o.o(.text) for __rt_ctype_table
    isalpha_o.o(.text) refers to ctype_o.o(.text) for __rt_ctype_table
    isblank_o.o(.text) refers to ctype_o.o(.constdata) for __ctype_table
    iscntrl_o.o(.text) refers to ctype_o.o(.text) for __rt_ctype_table
    isdigit_o.o(.text) refers to ctype_o.o(.text) for __rt_ctype_table
    isgraph_o.o(.text) refers to ctype_o.o(.text) for __rt_ctype_table
    islower_o.o(.text) refers to ctype_o.o(.text) for __rt_ctype_table
    isprint_o.o(.text) refers to ctype_o.o(.text) for __rt_ctype_table
    ispunct_o.o(.text) refers to ctype_o.o(.text) for __rt_ctype_table
    isspace_o.o(.text) refers to ctype_o.o(.text) for __rt_ctype_table
    isupper_o.o(.text) refers to ctype_o.o(.text) for __rt_ctype_table
    isxdigit_o.o(.text) refers to ctype_o.o(.text) for __rt_ctype_table
    _scanf.o(.text) refers (Weak) to scanf_fp.o(.text) for _scanf_real
    _scanf.o(.text) refers (Weak) to _scanf_longlong.o(.text) for _scanf_longlong
    _scanf.o(.text) refers (Weak) to _scanf_int.o(.text) for _scanf_int
    _scanf.o(.text) refers (Weak) to _scanf_str.o(.text) for _scanf_string
    _strtoul.o(.text) refers to _chval.o(.text) for _chval
    _strtoul.o(.text) refers to errno.o(i.__aeabi_errno_addr) for __aeabi_errno_addr
    dsqrt.o(.text) refers to llushr.o(.text) for __aeabi_llsr
    dsqrt.o(.text) refers to depilogue.o(.text) for _double_round
    dfltul.o(.text) refers to depilogue.o(.text) for _double_epilogue
    ctype_c.o(.text) refers to ctype_c.o(.constdata) for .constdata
    scanf_fp.o(i._is_digit) refers (Special) to iusefp.o(.text) for __I$use$fp


==============================================================================

Removing Unused input sections from the image.

    Removing misc.o(.rev16_text), (4 bytes).
    Removing misc.o(.revsh_text), (4 bytes).
    Removing misc.o(i.NVIC_PriorityGroupConfig), (20 bytes).
    Removing misc.o(i.NVIC_SetVectorTable), (20 bytes).
    Removing misc.o(i.NVIC_SystemLPConfig), (32 bytes).
    Removing misc.o(i.SysTick_CLKSourceConfig), (40 bytes).
    Removing stm32f4xx_rcc.o(.rev16_text), (4 bytes).
    Removing stm32f4xx_rcc.o(.revsh_text), (4 bytes).
    Removing stm32f4xx_rcc.o(i.RCC_AHB1PeriphClockLPModeCmd), (32 bytes).
    Removing stm32f4xx_rcc.o(i.RCC_AHB1PeriphResetCmd), (32 bytes).
    Removing stm32f4xx_rcc.o(i.RCC_AHB2PeriphClockCmd), (32 bytes).
    Removing stm32f4xx_rcc.o(i.RCC_AHB2PeriphClockLPModeCmd), (32 bytes).
    Removing stm32f4xx_rcc.o(i.RCC_AHB2PeriphResetCmd), (32 bytes).
    Removing stm32f4xx_rcc.o(i.RCC_AHB3PeriphClockCmd), (32 bytes).
    Removing stm32f4xx_rcc.o(i.RCC_AHB3PeriphClockLPModeCmd), (32 bytes).
    Removing stm32f4xx_rcc.o(i.RCC_AHB3PeriphResetCmd), (32 bytes).
    Removing stm32f4xx_rcc.o(i.RCC_APB1PeriphClockLPModeCmd), (32 bytes).
    Removing stm32f4xx_rcc.o(i.RCC_APB1PeriphResetCmd), (32 bytes).
    Removing stm32f4xx_rcc.o(i.RCC_APB2PeriphClockLPModeCmd), (32 bytes).
    Removing stm32f4xx_rcc.o(i.RCC_APB2PeriphResetCmd), (32 bytes).
    Removing stm32f4xx_rcc.o(i.RCC_AdjustHSICalibrationValue), (24 bytes).
    Removing stm32f4xx_rcc.o(i.RCC_BackupResetCmd), (12 bytes).
    Removing stm32f4xx_rcc.o(i.RCC_ClearFlag), (20 bytes).
    Removing stm32f4xx_rcc.o(i.RCC_ClearITPendingBit), (12 bytes).
    Removing stm32f4xx_rcc.o(i.RCC_ClockSecuritySystemCmd), (12 bytes).
    Removing stm32f4xx_rcc.o(i.RCC_DeInit), (100 bytes).
    Removing stm32f4xx_rcc.o(i.RCC_GetITStatus), (24 bytes).
    Removing stm32f4xx_rcc.o(i.RCC_GetSYSCLKSource), (16 bytes).
    Removing stm32f4xx_rcc.o(i.RCC_HCLKConfig), (24 bytes).
    Removing stm32f4xx_rcc.o(i.RCC_HSEConfig), (16 bytes).
    Removing stm32f4xx_rcc.o(i.RCC_HSICmd), (12 bytes).
    Removing stm32f4xx_rcc.o(i.RCC_I2SCLKConfig), (12 bytes).
    Removing stm32f4xx_rcc.o(i.RCC_ITConfig), (32 bytes).
    Removing stm32f4xx_rcc.o(i.RCC_LSEModeConfig), (36 bytes).
    Removing stm32f4xx_rcc.o(i.RCC_LSICmd), (12 bytes).
    Removing stm32f4xx_rcc.o(i.RCC_LTDCCLKDivConfig), (24 bytes).
    Removing stm32f4xx_rcc.o(i.RCC_MCO1Config), (28 bytes).
    Removing stm32f4xx_rcc.o(i.RCC_MCO2Config), (28 bytes).
    Removing stm32f4xx_rcc.o(i.RCC_PCLK1Config), (24 bytes).
    Removing stm32f4xx_rcc.o(i.RCC_PCLK2Config), (24 bytes).
    Removing stm32f4xx_rcc.o(i.RCC_PLLCmd), (12 bytes).
    Removing stm32f4xx_rcc.o(i.RCC_PLLConfig), (36 bytes).
    Removing stm32f4xx_rcc.o(i.RCC_PLLI2SCmd), (12 bytes).
    Removing stm32f4xx_rcc.o(i.RCC_PLLI2SConfig), (16 bytes).
    Removing stm32f4xx_rcc.o(i.RCC_PLLSAICmd), (12 bytes).
    Removing stm32f4xx_rcc.o(i.RCC_PLLSAIConfig), (24 bytes).
    Removing stm32f4xx_rcc.o(i.RCC_SAIBlockACLKConfig), (24 bytes).
    Removing stm32f4xx_rcc.o(i.RCC_SAIBlockBCLKConfig), (24 bytes).
    Removing stm32f4xx_rcc.o(i.RCC_SAIPLLI2SClkDivConfig), (28 bytes).
    Removing stm32f4xx_rcc.o(i.RCC_SAIPLLSAIClkDivConfig), (28 bytes).
    Removing stm32f4xx_rcc.o(i.RCC_SYSCLKConfig), (24 bytes).
    Removing stm32f4xx_rcc.o(i.RCC_TIMCLKPresConfig), (12 bytes).
    Removing stm32f4xx_rcc.o(i.RCC_WaitForHSEStartUp), (56 bytes).
    Removing stm32f4xx_gpio.o(.rev16_text), (4 bytes).
    Removing stm32f4xx_gpio.o(.revsh_text), (4 bytes).
    Removing stm32f4xx_gpio.o(i.GPIO_DeInit), (312 bytes).
    Removing stm32f4xx_gpio.o(i.GPIO_PinLockConfig), (34 bytes).
    Removing stm32f4xx_gpio.o(i.GPIO_ReadInputData), (8 bytes).
    Removing stm32f4xx_gpio.o(i.GPIO_ReadOutputData), (8 bytes).
    Removing stm32f4xx_gpio.o(i.GPIO_ReadOutputDataBit), (18 bytes).
    Removing stm32f4xx_gpio.o(i.GPIO_StructInit), (18 bytes).
    Removing stm32f4xx_gpio.o(i.GPIO_ToggleBits), (8 bytes).
    Removing stm32f4xx_gpio.o(i.GPIO_Write), (4 bytes).
    Removing stm32f4xx_gpio.o(i.GPIO_WriteBit), (10 bytes).
    Removing stm32f4xx_tim.o(.rev16_text), (4 bytes).
    Removing stm32f4xx_tim.o(.revsh_text), (4 bytes).
    Removing stm32f4xx_tim.o(i.TI1_Config), (58 bytes).
    Removing stm32f4xx_tim.o(i.TI2_Config), (80 bytes).
    Removing stm32f4xx_tim.o(i.TI3_Config), (72 bytes).
    Removing stm32f4xx_tim.o(i.TI4_Config), (80 bytes).
    Removing stm32f4xx_tim.o(i.TIM_BDTRConfig), (32 bytes).
    Removing stm32f4xx_tim.o(i.TIM_BDTRStructInit), (18 bytes).
    Removing stm32f4xx_tim.o(i.TIM_CCPreloadControl), (24 bytes).
    Removing stm32f4xx_tim.o(i.TIM_CCxCmd), (30 bytes).
    Removing stm32f4xx_tim.o(i.TIM_CCxNCmd), (30 bytes).
    Removing stm32f4xx_tim.o(i.TIM_ClearFlag), (6 bytes).
    Removing stm32f4xx_tim.o(i.TIM_ClearITPendingBit), (6 bytes).
    Removing stm32f4xx_tim.o(i.TIM_ClearOC1Ref), (18 bytes).
    Removing stm32f4xx_tim.o(i.TIM_ClearOC2Ref), (24 bytes).
    Removing stm32f4xx_tim.o(i.TIM_ClearOC3Ref), (18 bytes).
    Removing stm32f4xx_tim.o(i.TIM_ClearOC4Ref), (24 bytes).
    Removing stm32f4xx_tim.o(i.TIM_CounterModeConfig), (18 bytes).
    Removing stm32f4xx_tim.o(i.TIM_DMACmd), (18 bytes).
    Removing stm32f4xx_tim.o(i.TIM_DMAConfig), (10 bytes).
    Removing stm32f4xx_tim.o(i.TIM_DeInit), (400 bytes).
    Removing stm32f4xx_tim.o(i.TIM_ETRClockMode1Config), (54 bytes).
    Removing stm32f4xx_tim.o(i.TIM_ETRClockMode2Config), (32 bytes).
    Removing stm32f4xx_tim.o(i.TIM_ETRConfig), (28 bytes).
    Removing stm32f4xx_tim.o(i.TIM_EncoderInterfaceConfig), (66 bytes).
    Removing stm32f4xx_tim.o(i.TIM_ForcedOC1Config), (18 bytes).
    Removing stm32f4xx_tim.o(i.TIM_ForcedOC2Config), (26 bytes).
    Removing stm32f4xx_tim.o(i.TIM_ForcedOC3Config), (18 bytes).
    Removing stm32f4xx_tim.o(i.TIM_ForcedOC4Config), (26 bytes).
    Removing stm32f4xx_tim.o(i.TIM_GenerateEvent), (4 bytes).
    Removing stm32f4xx_tim.o(i.TIM_GetCapture1), (6 bytes).
    Removing stm32f4xx_tim.o(i.TIM_GetCapture2), (6 bytes).
    Removing stm32f4xx_tim.o(i.TIM_GetCapture3), (6 bytes).
    Removing stm32f4xx_tim.o(i.TIM_GetCapture4), (6 bytes).
    Removing stm32f4xx_tim.o(i.TIM_GetCounter), (6 bytes).
    Removing stm32f4xx_tim.o(i.TIM_GetFlagStatus), (18 bytes).
    Removing stm32f4xx_tim.o(i.TIM_GetITStatus), (34 bytes).
    Removing stm32f4xx_tim.o(i.TIM_GetPrescaler), (6 bytes).
    Removing stm32f4xx_tim.o(i.TIM_ICInit), (110 bytes).
    Removing stm32f4xx_tim.o(i.TIM_ICStructInit), (18 bytes).
    Removing stm32f4xx_tim.o(i.TIM_ITConfig), (18 bytes).
    Removing stm32f4xx_tim.o(i.TIM_ITRxExternalClockConfig), (24 bytes).
    Removing stm32f4xx_tim.o(i.TIM_InternalClockConfig), (12 bytes).
    Removing stm32f4xx_tim.o(i.TIM_OC1FastConfig), (18 bytes).
    Removing stm32f4xx_tim.o(i.TIM_OC1NPolarityConfig), (18 bytes).
    Removing stm32f4xx_tim.o(i.TIM_OC1PolarityConfig), (18 bytes).
    Removing stm32f4xx_tim.o(i.TIM_OC1PreloadConfig), (18 bytes).
    Removing stm32f4xx_tim.o(i.TIM_OC2FastConfig), (26 bytes).
    Removing stm32f4xx_tim.o(i.TIM_OC2Init), (164 bytes).
    Removing stm32f4xx_tim.o(i.TIM_OC2NPolarityConfig), (26 bytes).
    Removing stm32f4xx_tim.o(i.TIM_OC2PolarityConfig), (26 bytes).
    Removing stm32f4xx_tim.o(i.TIM_OC2PreloadConfig), (26 bytes).
    Removing stm32f4xx_tim.o(i.TIM_OC3FastConfig), (18 bytes).
    Removing stm32f4xx_tim.o(i.TIM_OC3Init), (160 bytes).
    Removing stm32f4xx_tim.o(i.TIM_OC3NPolarityConfig), (26 bytes).
    Removing stm32f4xx_tim.o(i.TIM_OC3PolarityConfig), (26 bytes).
    Removing stm32f4xx_tim.o(i.TIM_OC3PreloadConfig), (18 bytes).
    Removing stm32f4xx_tim.o(i.TIM_OC4FastConfig), (26 bytes).
    Removing stm32f4xx_tim.o(i.TIM_OC4Init), (120 bytes).
    Removing stm32f4xx_tim.o(i.TIM_OC4PolarityConfig), (26 bytes).
    Removing stm32f4xx_tim.o(i.TIM_OC4PreloadConfig), (26 bytes).
    Removing stm32f4xx_tim.o(i.TIM_OCStructInit), (20 bytes).
    Removing stm32f4xx_tim.o(i.TIM_PWMIConfig), (124 bytes).
    Removing stm32f4xx_tim.o(i.TIM_PrescalerConfig), (6 bytes).
    Removing stm32f4xx_tim.o(i.TIM_RemapConfig), (6 bytes).
    Removing stm32f4xx_tim.o(i.TIM_SelectCCDMA), (24 bytes).
    Removing stm32f4xx_tim.o(i.TIM_SelectCOM), (24 bytes).
    Removing stm32f4xx_tim.o(i.TIM_SelectHallSensor), (24 bytes).
    Removing stm32f4xx_tim.o(i.TIM_SelectInputTrigger), (18 bytes).
    Removing stm32f4xx_tim.o(i.TIM_SelectMasterSlaveMode), (18 bytes).
    Removing stm32f4xx_tim.o(i.TIM_SelectOCxM), (86 bytes).
    Removing stm32f4xx_tim.o(i.TIM_SelectOnePulseMode), (18 bytes).
    Removing stm32f4xx_tim.o(i.TIM_SelectOutputTrigger), (18 bytes).
    Removing stm32f4xx_tim.o(i.TIM_SelectSlaveMode), (18 bytes).
    Removing stm32f4xx_tim.o(i.TIM_SetAutoreload), (4 bytes).
    Removing stm32f4xx_tim.o(i.TIM_SetClockDivision), (18 bytes).
    Removing stm32f4xx_tim.o(i.TIM_SetCompare1), (4 bytes).
    Removing stm32f4xx_tim.o(i.TIM_SetCompare2), (4 bytes).
    Removing stm32f4xx_tim.o(i.TIM_SetCompare3), (4 bytes).
    Removing stm32f4xx_tim.o(i.TIM_SetCompare4), (4 bytes).
    Removing stm32f4xx_tim.o(i.TIM_SetCounter), (4 bytes).
    Removing stm32f4xx_tim.o(i.TIM_SetIC1Prescaler), (18 bytes).
    Removing stm32f4xx_tim.o(i.TIM_SetIC2Prescaler), (26 bytes).
    Removing stm32f4xx_tim.o(i.TIM_SetIC3Prescaler), (18 bytes).
    Removing stm32f4xx_tim.o(i.TIM_SetIC4Prescaler), (26 bytes).
    Removing stm32f4xx_tim.o(i.TIM_TIxExternalClockConfig), (62 bytes).
    Removing stm32f4xx_tim.o(i.TIM_TimeBaseStructInit), (18 bytes).
    Removing stm32f4xx_tim.o(i.TIM_UpdateDisableConfig), (24 bytes).
    Removing stm32f4xx_tim.o(i.TIM_UpdateRequestConfig), (24 bytes).
    Removing stm32f4xx_wwdg.o(.rev16_text), (4 bytes).
    Removing stm32f4xx_wwdg.o(.revsh_text), (4 bytes).
    Removing stm32f4xx_wwdg.o(i.WWDG_ClearFlag), (12 bytes).
    Removing stm32f4xx_wwdg.o(i.WWDG_DeInit), (22 bytes).
    Removing stm32f4xx_wwdg.o(i.WWDG_Enable), (16 bytes).
    Removing stm32f4xx_wwdg.o(i.WWDG_EnableIT), (12 bytes).
    Removing stm32f4xx_wwdg.o(i.WWDG_GetFlagStatus), (20 bytes).
    Removing stm32f4xx_wwdg.o(i.WWDG_SetCounter), (16 bytes).
    Removing stm32f4xx_wwdg.o(i.WWDG_SetPrescaler), (24 bytes).
    Removing stm32f4xx_wwdg.o(i.WWDG_SetWindowValue), (40 bytes).
    Removing stm32f4xx_usart.o(.rev16_text), (4 bytes).
    Removing stm32f4xx_usart.o(.revsh_text), (4 bytes).
    Removing stm32f4xx_usart.o(i.USART_ClockInit), (32 bytes).
    Removing stm32f4xx_usart.o(i.USART_ClockStructInit), (12 bytes).
    Removing stm32f4xx_usart.o(i.USART_DMACmd), (18 bytes).
    Removing stm32f4xx_usart.o(i.USART_DeInit), (240 bytes).
    Removing stm32f4xx_usart.o(i.USART_HalfDuplexCmd), (24 bytes).
    Removing stm32f4xx_usart.o(i.USART_IrDACmd), (24 bytes).
    Removing stm32f4xx_usart.o(i.USART_IrDAConfig), (18 bytes).
    Removing stm32f4xx_usart.o(i.USART_LINBreakDetectLengthConfig), (18 bytes).
    Removing stm32f4xx_usart.o(i.USART_LINCmd), (24 bytes).
    Removing stm32f4xx_usart.o(i.USART_OneBitMethodCmd), (24 bytes).
    Removing stm32f4xx_usart.o(i.USART_OverSampling8Cmd), (22 bytes).
    Removing stm32f4xx_usart.o(i.USART_ReceiverWakeUpCmd), (24 bytes).
    Removing stm32f4xx_usart.o(i.USART_SendBreak), (10 bytes).
    Removing stm32f4xx_usart.o(i.USART_SetAddress), (18 bytes).
    Removing stm32f4xx_usart.o(i.USART_SetGuardTime), (16 bytes).
    Removing stm32f4xx_usart.o(i.USART_SetPrescaler), (16 bytes).
    Removing stm32f4xx_usart.o(i.USART_SmartCardCmd), (24 bytes).
    Removing stm32f4xx_usart.o(i.USART_SmartCardNACKCmd), (24 bytes).
    Removing stm32f4xx_usart.o(i.USART_StructInit), (24 bytes).
    Removing stm32f4xx_usart.o(i.USART_WakeUpConfig), (18 bytes).
    Removing stm32f4xx_spi.o(.rev16_text), (4 bytes).
    Removing stm32f4xx_spi.o(.revsh_text), (4 bytes).
    Removing stm32f4xx_spi.o(i.I2S_Cmd), (24 bytes).
    Removing stm32f4xx_spi.o(i.I2S_FullDuplexConfig), (80 bytes).
    Removing stm32f4xx_spi.o(i.I2S_Init), (408 bytes).
    Removing stm32f4xx_spi.o(i.I2S_StructInit), (20 bytes).
    Removing stm32f4xx_spi.o(i.SPI_BiDirectionalLineConfig), (28 bytes).
    Removing stm32f4xx_spi.o(i.SPI_CalculateCRC), (24 bytes).
    Removing stm32f4xx_spi.o(i.SPI_Cmd), (24 bytes).
    Removing stm32f4xx_spi.o(i.SPI_DataSizeConfig), (18 bytes).
    Removing stm32f4xx_spi.o(i.SPI_GetCRC), (16 bytes).
    Removing stm32f4xx_spi.o(i.SPI_GetCRCPolynomial), (6 bytes).
    Removing stm32f4xx_spi.o(i.SPI_I2S_ClearFlag), (6 bytes).
    Removing stm32f4xx_spi.o(i.SPI_I2S_ClearITPendingBit), (20 bytes).
    Removing stm32f4xx_spi.o(i.SPI_I2S_DMACmd), (18 bytes).
    Removing stm32f4xx_spi.o(i.SPI_I2S_DeInit), (176 bytes).
    Removing stm32f4xx_spi.o(i.SPI_I2S_GetFlagStatus), (18 bytes).
    Removing stm32f4xx_spi.o(i.SPI_I2S_GetITStatus), (52 bytes).
    Removing stm32f4xx_spi.o(i.SPI_I2S_ITConfig), (32 bytes).
    Removing stm32f4xx_spi.o(i.SPI_I2S_ReceiveData), (6 bytes).
    Removing stm32f4xx_spi.o(i.SPI_I2S_SendData), (4 bytes).
    Removing stm32f4xx_spi.o(i.SPI_Init), (60 bytes).
    Removing stm32f4xx_spi.o(i.SPI_NSSInternalSoftwareConfig), (30 bytes).
    Removing stm32f4xx_spi.o(i.SPI_SSOutputCmd), (24 bytes).
    Removing stm32f4xx_spi.o(i.SPI_StructInit), (24 bytes).
    Removing stm32f4xx_spi.o(i.SPI_TIModeCmd), (24 bytes).
    Removing stm32f4xx_spi.o(i.SPI_TransmitCRC), (10 bytes).
    Removing stm32f4xx_rtc.o(.rev16_text), (4 bytes).
    Removing stm32f4xx_rtc.o(.revsh_text), (4 bytes).
    Removing stm32f4xx_rtc.o(i.RTC_AlarmCmd), (116 bytes).
    Removing stm32f4xx_rtc.o(i.RTC_AlarmStructInit), (22 bytes).
    Removing stm32f4xx_rtc.o(i.RTC_AlarmSubSecondConfig), (52 bytes).
    Removing stm32f4xx_rtc.o(i.RTC_BypassShadowCmd), (60 bytes).
    Removing stm32f4xx_rtc.o(i.RTC_CalibOutputCmd), (60 bytes).
    Removing stm32f4xx_rtc.o(i.RTC_CalibOutputConfig), (48 bytes).
    Removing stm32f4xx_rtc.o(i.RTC_ClearFlag), (28 bytes).
    Removing stm32f4xx_rtc.o(i.RTC_CoarseCalibCmd), (80 bytes).
    Removing stm32f4xx_rtc.o(i.RTC_CoarseCalibConfig), (56 bytes).
    Removing stm32f4xx_rtc.o(i.RTC_DateStructInit), (14 bytes).
    Removing stm32f4xx_rtc.o(i.RTC_DayLightSavingConfig), (56 bytes).
    Removing stm32f4xx_rtc.o(i.RTC_DeInit), (212 bytes).
    Removing stm32f4xx_rtc.o(i.RTC_GetAlarm), (116 bytes).
    Removing stm32f4xx_rtc.o(i.RTC_GetAlarmSubSecond), (36 bytes).
    Removing stm32f4xx_rtc.o(i.RTC_GetFlagStatus), (40 bytes).
    Removing stm32f4xx_rtc.o(i.RTC_GetStoreOperation), (16 bytes).
    Removing stm32f4xx_rtc.o(i.RTC_GetSubSecond), (20 bytes).
    Removing stm32f4xx_rtc.o(i.RTC_GetTimeStamp), (156 bytes).
    Removing stm32f4xx_rtc.o(i.RTC_GetTimeStampSubSecond), (12 bytes).
    Removing stm32f4xx_rtc.o(i.RTC_GetWakeUpCounter), (12 bytes).
    Removing stm32f4xx_rtc.o(i.RTC_OutputConfig), (56 bytes).
    Removing stm32f4xx_rtc.o(i.RTC_OutputTypeConfig), (28 bytes).
    Removing stm32f4xx_rtc.o(i.RTC_ReadBackupRegister), (32 bytes).
    Removing stm32f4xx_rtc.o(i.RTC_RefClockCmd), (80 bytes).
    Removing stm32f4xx_rtc.o(i.RTC_SetAlarm), (236 bytes).
    Removing stm32f4xx_rtc.o(i.RTC_SmoothCalibConfig), (96 bytes).
    Removing stm32f4xx_rtc.o(i.RTC_StructInit), (14 bytes).
    Removing stm32f4xx_rtc.o(i.RTC_SynchroShiftConfig), (124 bytes).
    Removing stm32f4xx_rtc.o(i.RTC_TamperCmd), (32 bytes).
    Removing stm32f4xx_rtc.o(i.RTC_TamperFilterConfig), (28 bytes).
    Removing stm32f4xx_rtc.o(i.RTC_TamperPinSelection), (28 bytes).
    Removing stm32f4xx_rtc.o(i.RTC_TamperPinsPrechargeDuration), (28 bytes).
    Removing stm32f4xx_rtc.o(i.RTC_TamperPullUpCmd), (36 bytes).
    Removing stm32f4xx_rtc.o(i.RTC_TamperSamplingFreqConfig), (28 bytes).
    Removing stm32f4xx_rtc.o(i.RTC_TamperTriggerConfig), (36 bytes).
    Removing stm32f4xx_rtc.o(i.RTC_TimeStampCmd), (56 bytes).
    Removing stm32f4xx_rtc.o(i.RTC_TimeStampOnTamperDetectionCmd), (36 bytes).
    Removing stm32f4xx_rtc.o(i.RTC_TimeStampPinSelection), (28 bytes).
    Removing stm32f4xx_rtc.o(i.RTC_TimeStructInit), (12 bytes).
    Removing stm32f4xx_rtc.o(i.RTC_WriteBackupRegister), (28 bytes).
    Removing stm32f4xx_rtc.o(i.RTC_WriteProtectionCmd), (28 bytes).
    Removing stm32f4xx_pwr.o(.rev16_text), (4 bytes).
    Removing stm32f4xx_pwr.o(.revsh_text), (4 bytes).
    Removing stm32f4xx_pwr.o(i.PWR_BackupRegulatorCmd), (12 bytes).
    Removing stm32f4xx_pwr.o(i.PWR_ClearFlag), (20 bytes).
    Removing stm32f4xx_pwr.o(i.PWR_DeInit), (22 bytes).
    Removing stm32f4xx_pwr.o(i.PWR_EnterSTANDBYMode), (40 bytes).
    Removing stm32f4xx_pwr.o(i.PWR_EnterSTOPMode), (68 bytes).
    Removing stm32f4xx_pwr.o(i.PWR_EnterUnderDriveSTOPMode), (68 bytes).
    Removing stm32f4xx_pwr.o(i.PWR_FlashPowerDownCmd), (12 bytes).
    Removing stm32f4xx_pwr.o(i.PWR_GetFlagStatus), (24 bytes).
    Removing stm32f4xx_pwr.o(i.PWR_LowRegulatorLowVoltageCmd), (24 bytes).
    Removing stm32f4xx_pwr.o(i.PWR_MainRegulatorLowVoltageCmd), (24 bytes).
    Removing stm32f4xx_pwr.o(i.PWR_MainRegulatorModeConfig), (24 bytes).
    Removing stm32f4xx_pwr.o(i.PWR_OverDriveCmd), (12 bytes).
    Removing stm32f4xx_pwr.o(i.PWR_OverDriveSWCmd), (12 bytes).
    Removing stm32f4xx_pwr.o(i.PWR_PVDCmd), (12 bytes).
    Removing stm32f4xx_pwr.o(i.PWR_PVDLevelConfig), (24 bytes).
    Removing stm32f4xx_pwr.o(i.PWR_UnderDriveCmd), (36 bytes).
    Removing stm32f4xx_pwr.o(i.PWR_WakeUpPinCmd), (12 bytes).
    Removing stm32f4xx_iwdg.o(.rev16_text), (4 bytes).
    Removing stm32f4xx_iwdg.o(.revsh_text), (4 bytes).
    Removing stm32f4xx_iwdg.o(i.IWDG_Enable), (16 bytes).
    Removing stm32f4xx_iwdg.o(i.IWDG_GetFlagStatus), (24 bytes).
    Removing stm32f4xx_iwdg.o(i.IWDG_ReloadCounter), (16 bytes).
    Removing stm32f4xx_iwdg.o(i.IWDG_SetPrescaler), (12 bytes).
    Removing stm32f4xx_iwdg.o(i.IWDG_SetReload), (12 bytes).
    Removing stm32f4xx_iwdg.o(i.IWDG_WriteAccessCmd), (12 bytes).
    Removing stm32f4xx_i2c.o(.rev16_text), (4 bytes).
    Removing stm32f4xx_i2c.o(.revsh_text), (4 bytes).
    Removing stm32f4xx_i2c.o(i.I2C_ARPCmd), (24 bytes).
    Removing stm32f4xx_i2c.o(i.I2C_AcknowledgeConfig), (24 bytes).
    Removing stm32f4xx_i2c.o(i.I2C_AnalogFilterCmd), (24 bytes).
    Removing stm32f4xx_i2c.o(i.I2C_CalculatePEC), (24 bytes).
    Removing stm32f4xx_i2c.o(i.I2C_CheckEvent), (42 bytes).
    Removing stm32f4xx_i2c.o(i.I2C_ClearFlag), (12 bytes).
    Removing stm32f4xx_i2c.o(i.I2C_ClearITPendingBit), (12 bytes).
    Removing stm32f4xx_i2c.o(i.I2C_Cmd), (24 bytes).
    Removing stm32f4xx_i2c.o(i.I2C_DMACmd), (24 bytes).
    Removing stm32f4xx_i2c.o(i.I2C_DMALastTransferCmd), (24 bytes).
    Removing stm32f4xx_i2c.o(i.I2C_DeInit), (96 bytes).
    Removing stm32f4xx_i2c.o(i.I2C_DigitalFilterConfig), (22 bytes).
    Removing stm32f4xx_i2c.o(i.I2C_DualAddressCmd), (24 bytes).
    Removing stm32f4xx_i2c.o(i.I2C_FastModeDutyCycleConfig), (28 bytes).
    Removing stm32f4xx_i2c.o(i.I2C_GeneralCallCmd), (24 bytes).
    Removing stm32f4xx_i2c.o(i.I2C_GenerateSTART), (24 bytes).
    Removing stm32f4xx_i2c.o(i.I2C_GenerateSTOP), (24 bytes).
    Removing stm32f4xx_i2c.o(i.I2C_GetFlagStatus), (58 bytes).
    Removing stm32f4xx_i2c.o(i.I2C_GetITStatus), (38 bytes).
    Removing stm32f4xx_i2c.o(i.I2C_GetLastEvent), (26 bytes).
    Removing stm32f4xx_i2c.o(i.I2C_GetPEC), (8 bytes).
    Removing stm32f4xx_i2c.o(i.I2C_ITConfig), (18 bytes).
    Removing stm32f4xx_i2c.o(i.I2C_Init), (232 bytes).
    Removing stm32f4xx_i2c.o(i.I2C_NACKPositionConfig), (28 bytes).
    Removing stm32f4xx_i2c.o(i.I2C_OwnAddress2Config), (22 bytes).
    Removing stm32f4xx_i2c.o(i.I2C_PECPositionConfig), (28 bytes).
    Removing stm32f4xx_i2c.o(i.I2C_ReadRegister), (22 bytes).
    Removing stm32f4xx_i2c.o(i.I2C_ReceiveData), (8 bytes).
    Removing stm32f4xx_i2c.o(i.I2C_SMBusAlertConfig), (28 bytes).
    Removing stm32f4xx_i2c.o(i.I2C_Send7bitAddress), (16 bytes).
    Removing stm32f4xx_i2c.o(i.I2C_SendData), (4 bytes).
    Removing stm32f4xx_i2c.o(i.I2C_SoftwareResetCmd), (22 bytes).
    Removing stm32f4xx_i2c.o(i.I2C_StretchClockCmd), (24 bytes).
    Removing stm32f4xx_i2c.o(i.I2C_StructInit), (30 bytes).
    Removing stm32f4xx_i2c.o(i.I2C_TransmitPEC), (24 bytes).
    Removing stm32f4xx_exti.o(.rev16_text), (4 bytes).
    Removing stm32f4xx_exti.o(.revsh_text), (4 bytes).
    Removing stm32f4xx_exti.o(i.EXTI_ClearFlag), (12 bytes).
    Removing stm32f4xx_exti.o(i.EXTI_DeInit), (36 bytes).
    Removing stm32f4xx_exti.o(i.EXTI_GenerateSWInterrupt), (16 bytes).
    Removing stm32f4xx_exti.o(i.EXTI_GetFlagStatus), (24 bytes).
    Removing stm32f4xx_exti.o(i.EXTI_GetITStatus), (24 bytes).
    Removing stm32f4xx_exti.o(i.EXTI_StructInit), (16 bytes).
    Removing stm32f4xx_adc.o(.rev16_text), (4 bytes).
    Removing stm32f4xx_adc.o(.revsh_text), (4 bytes).
    Removing stm32f4xx_adc.o(i.ADC_AnalogWatchdogCmd), (20 bytes).
    Removing stm32f4xx_adc.o(i.ADC_AnalogWatchdogSingleChannelConfig), (16 bytes).
    Removing stm32f4xx_adc.o(i.ADC_AnalogWatchdogThresholdsConfig), (6 bytes).
    Removing stm32f4xx_adc.o(i.ADC_AutoInjectedConvCmd), (22 bytes).
    Removing stm32f4xx_adc.o(i.ADC_ClearFlag), (6 bytes).
    Removing stm32f4xx_adc.o(i.ADC_ClearITPendingBit), (10 bytes).
    Removing stm32f4xx_adc.o(i.ADC_CommonStructInit), (12 bytes).
    Removing stm32f4xx_adc.o(i.ADC_ContinuousModeCmd), (22 bytes).
    Removing stm32f4xx_adc.o(i.ADC_DMACmd), (22 bytes).
    Removing stm32f4xx_adc.o(i.ADC_DMARequestAfterLastTransferCmd), (22 bytes).
    Removing stm32f4xx_adc.o(i.ADC_DeInit), (22 bytes).
    Removing stm32f4xx_adc.o(i.ADC_DiscModeChannelCountConfig), (24 bytes).
    Removing stm32f4xx_adc.o(i.ADC_DiscModeCmd), (22 bytes).
    Removing stm32f4xx_adc.o(i.ADC_EOCOnEachRegularChannelCmd), (22 bytes).
    Removing stm32f4xx_adc.o(i.ADC_ExternalTrigInjectedConvConfig), (16 bytes).
    Removing stm32f4xx_adc.o(i.ADC_ExternalTrigInjectedConvEdgeConfig), (16 bytes).
    Removing stm32f4xx_adc.o(i.ADC_GetITStatus), (38 bytes).
    Removing stm32f4xx_adc.o(i.ADC_GetInjectedConversionValue), (28 bytes).
    Removing stm32f4xx_adc.o(i.ADC_GetMultiModeConversionValue), (12 bytes).
    Removing stm32f4xx_adc.o(i.ADC_GetSoftwareStartConvStatus), (20 bytes).
    Removing stm32f4xx_adc.o(i.ADC_GetSoftwareStartInjectedConvCmdStatus), (20 bytes).
    Removing stm32f4xx_adc.o(i.ADC_ITConfig), (32 bytes).
    Removing stm32f4xx_adc.o(i.ADC_InjectedChannelConfig), (130 bytes).
    Removing stm32f4xx_adc.o(i.ADC_InjectedDiscModeCmd), (22 bytes).
    Removing stm32f4xx_adc.o(i.ADC_InjectedSequencerLengthConfig), (24 bytes).
    Removing stm32f4xx_adc.o(i.ADC_MultiModeDMARequestAfterLastTransferCmd), (44 bytes).
    Removing stm32f4xx_adc.o(i.ADC_SetInjectedOffset), (20 bytes).
    Removing stm32f4xx_adc.o(i.ADC_SoftwareStartInjectedConv), (10 bytes).
    Removing stm32f4xx_adc.o(i.ADC_StructInit), (20 bytes).
    Removing stm32f4xx_adc.o(i.ADC_TempSensorVrefintCmd), (44 bytes).
    Removing stm32f4xx_adc.o(i.ADC_VBATCmd), (44 bytes).
    Removing adc.o(.rev16_text), (4 bytes).
    Removing adc.o(.revsh_text), (4 bytes).
    Removing cjson.o(i.cJSON_AddItemReferenceToArray), (36 bytes).
    Removing cjson.o(i.cJSON_AddItemReferenceToObject), (48 bytes).
    Removing cjson.o(i.cJSON_AddItemToArray), (44 bytes).
    Removing cjson.o(i.cJSON_AddItemToObject), (52 bytes).
    Removing cjson.o(i.cJSON_AddItemToObjectCS), (60 bytes).
    Removing cjson.o(i.cJSON_Compare), (394 bytes).
    Removing cjson.o(i.cJSON_CreateArray), (24 bytes).
    Removing cjson.o(i.cJSON_CreateBool), (32 bytes).
    Removing cjson.o(i.cJSON_CreateDoubleArray), (106 bytes).
    Removing cjson.o(i.cJSON_CreateFalse), (24 bytes).
    Removing cjson.o(i.cJSON_CreateFloatArray), (128 bytes).
    Removing cjson.o(i.cJSON_CreateIntArray), (118 bytes).
    Removing cjson.o(i.cJSON_CreateNull), (24 bytes).
    Removing cjson.o(i.cJSON_CreateNumber), (124 bytes).
    Removing cjson.o(i.cJSON_CreateObject), (24 bytes).
    Removing cjson.o(i.cJSON_CreateRaw), (52 bytes).
    Removing cjson.o(i.cJSON_CreateString), (52 bytes).
    Removing cjson.o(i.cJSON_CreateStringArray), (94 bytes).
    Removing cjson.o(i.cJSON_CreateTrue), (24 bytes).
    Removing cjson.o(i.cJSON_DeleteItemFromArray), (22 bytes).
    Removing cjson.o(i.cJSON_DeleteItemFromObject), (22 bytes).
    Removing cjson.o(i.cJSON_DeleteItemFromObjectCaseSensitive), (22 bytes).
    Removing cjson.o(i.cJSON_DetachItemFromArray), (34 bytes).
    Removing cjson.o(i.cJSON_DetachItemFromObject), (26 bytes).
    Removing cjson.o(i.cJSON_DetachItemFromObjectCaseSensitive), (26 bytes).
    Removing cjson.o(i.cJSON_DetachItemViaPointer), (50 bytes).
    Removing cjson.o(i.cJSON_Duplicate), (184 bytes).
    Removing cjson.o(i.cJSON_GetArraySize), (28 bytes).
    Removing cjson.o(i.cJSON_GetObjectItemCaseSensitive), (18 bytes).
    Removing cjson.o(i.cJSON_HasObjectItem), (24 bytes).
    Removing cjson.o(i.cJSON_InitHooks), (100 bytes).
    Removing cjson.o(i.cJSON_InsertItemInArray), (68 bytes).
    Removing cjson.o(i.cJSON_IsArray), (22 bytes).
    Removing cjson.o(i.cJSON_IsBool), (24 bytes).
    Removing cjson.o(i.cJSON_IsFalse), (20 bytes).
    Removing cjson.o(i.cJSON_IsInvalid), (20 bytes).
    Removing cjson.o(i.cJSON_IsNull), (22 bytes).
    Removing cjson.o(i.cJSON_IsNumber), (22 bytes).
    Removing cjson.o(i.cJSON_IsObject), (22 bytes).
    Removing cjson.o(i.cJSON_IsRaw), (22 bytes).
    Removing cjson.o(i.cJSON_IsString), (22 bytes).
    Removing cjson.o(i.cJSON_IsTrue), (22 bytes).
    Removing cjson.o(i.cJSON_Minify), (192 bytes).
    Removing cjson.o(i.cJSON_PrintBuffered), (96 bytes).
    Removing cjson.o(i.cJSON_PrintPreallocated), (68 bytes).
    Removing cjson.o(i.cJSON_PrintUnformatted), (20 bytes).
    Removing cjson.o(i.cJSON_ReplaceItemInArray), (42 bytes).
    Removing cjson.o(i.cJSON_ReplaceItemInObject), (22 bytes).
    Removing cjson.o(i.cJSON_ReplaceItemInObjectCaseSensitive), (22 bytes).
    Removing cjson.o(i.cJSON_ReplaceItemViaPointer), (74 bytes).
    Removing cjson.o(i.cJSON_SetNumberHelper), (112 bytes).
    Removing cjson.o(i.cJSON_Version), (40 bytes).
    Removing cjson.o(i.cJSON_free), (20 bytes).
    Removing cjson.o(i.cJSON_malloc), (20 bytes).
    Removing cjson.o(i.cJSON_strdup), (54 bytes).
    Removing cjson.o(i.create_reference), (60 bytes).
    Removing cjson.o(i.replace_item_in_object), (88 bytes).
    Removing cjson.o(i.suffix_object), (6 bytes).
    Removing cjson.o(.bss), (15 bytes).
    Removing delay.o(.rev16_text), (4 bytes).
    Removing delay.o(.revsh_text), (4 bytes).
    Removing esp8266.o(.rev16_text), (4 bytes).
    Removing esp8266.o(.revsh_text), (4 bytes).
    Removing esp8266.o(i.USART3_sendlenth), (46 bytes).
    Removing esp8266.o(i.USART3_sendstr), (40 bytes).
    Removing esp8266.o(i.Wifi_Init), (256 bytes).
    Removing esp8266.o(i.esp8266_close_server), (80 bytes).
    Removing esp8266.o(i.esp8266_create_server), (80 bytes).
    Removing esp8266.o(i.esp8266_enable_multiple_id), (76 bytes).
    Removing esp8266.o(i.esp8266_init), (12 bytes).
    Removing esp8266.o(i.wifisend), (68 bytes).
    Removing i2c.o(.rev16_text), (4 bytes).
    Removing i2c.o(.revsh_text), (4 bytes).
    Removing i2c.o(i.IIC_MasterSendAck), (76 bytes).
    Removing i2c.o(i.IIC_ReadByte), (104 bytes).
    Removing led.o(.rev16_text), (4 bytes).
    Removing led.o(.revsh_text), (4 bytes).
    Removing motor.o(.rev16_text), (4 bytes).
    Removing motor.o(.revsh_text), (4 bytes).
    Removing motor.o(i.MotorStop), (20 bytes).
    Removing mqtt.o(.rev16_text), (4 bytes).
    Removing mqtt.o(.revsh_text), (4 bytes).
    Removing mqtt.o(i.mqtt_disconnect), (28 bytes).
    Removing mqtt.o(.constdata), (2 bytes).
    Removing oled.o(.rev16_text), (4 bytes).
    Removing oled.o(.revsh_text), (4 bytes).
    Removing oled.o(i.OLED_ShowBinNum), (62 bytes).
    Removing oled.o(i.OLED_ShowHexNum), (84 bytes).
    Removing oled.o(i.OLED_ShowSignedNum), (102 bytes).
    Removing rtc.o(.rev16_text), (4 bytes).
    Removing rtc.o(.revsh_text), (4 bytes).
    Removing rtc.o(.bss), (50 bytes).
    Removing sys.o(.rev16_text), (4 bytes).
    Removing sys.o(.revsh_text), (4 bytes).
    Removing sys.o(.emb_text), (16 bytes).
    Removing usart.o(.rev16_text), (4 bytes).
    Removing usart.o(.revsh_text), (4 bytes).
    Removing usart.o(i.USART1_SendString), (44 bytes).
    Removing usart2.o(.rev16_text), (4 bytes).
    Removing usart2.o(.revsh_text), (4 bytes).
    Removing usart2.o(i.USART3_SendString), (44 bytes).
    Removing usart2.o(i.Usart_SendArray), (48 bytes).
    Removing usart2.o(i.Usart_SendHalfWord), (60 bytes).
    Removing usart2.o(i._sys_exit), (2 bytes).
    Removing ws2812.o(.rev16_text), (4 bytes).
    Removing ws2812.o(.revsh_text), (4 bytes).
    Removing ws2812.o(i.ResetDataFlow), (20 bytes).
    Removing ws2812.o(i.WS2812_Change_Brightness), (144 bytes).
    Removing ws2812.o(i.WS2812_Close), (20 bytes).
    Removing ws2812.o(i.WS2812_Open), (24 bytes).
    Removing ws2812.o(i.WS2812_RGB2GRB), (40 bytes).
    Removing ws2812.o(i.WS2812_SendOneFrame), (36 bytes).
    Removing ws2812.o(i.WS2812_SendOneFrameFrom), (68 bytes).
    Removing ws2812.o(i.WS2812_SendOneFrameSince), (60 bytes).
    Removing ws2812.o(i.WS2812_SendOnePix), (884 bytes).
    Removing ws2812.o(i.WS2812_SendSameColor), (34 bytes).
    Removing ws2812.o(i.WS2812_Show_RGB), (156 bytes).
    Removing ws2812.o(i.hsv2rgb), (568 bytes).
    Removing ws2812.o(i.max), (50 bytes).
    Removing ws2812.o(i.min), (50 bytes).
    Removing ws2812.o(i.rgb2hsv), (352 bytes).
    Removing ws2812.o(.constdata), (55 bytes).
    Removing ws2812.o(.data), (9 bytes).
    Removing nettime.o(.rev16_text), (4 bytes).
    Removing nettime.o(.revsh_text), (4 bytes).
    Removing system_stm32f4xx.o(.rev16_text), (4 bytes).
    Removing system_stm32f4xx.o(.revsh_text), (4 bytes).
    Removing system_stm32f4xx.o(i.SystemCoreClockUpdate), (192 bytes).
    Removing main.o(.rev16_text), (4 bytes).
    Removing main.o(.revsh_text), (4 bytes).
    Removing stm32f4xx_it.o(.rev16_text), (4 bytes).
    Removing stm32f4xx_it.o(.revsh_text), (4 bytes).
    Removing tasks.o(i.eTaskGetState), (132 bytes).
    Removing tasks.o(i.pcTaskGetName), (48 bytes).
    Removing tasks.o(i.prvListTasksWithinSingleList), (106 bytes).
    Removing tasks.o(i.prvTaskCheckFreeStackSpace), (22 bytes).
    Removing tasks.o(i.prvTaskIsTaskSuspended), (88 bytes).
    Removing tasks.o(i.ulTaskNotifyTake), (116 bytes).
    Removing tasks.o(i.uxTaskGetNumberOfTasks), (12 bytes).
    Removing tasks.o(i.uxTaskGetSystemState), (176 bytes).
    Removing tasks.o(i.uxTaskGetTaskNumber), (14 bytes).
    Removing tasks.o(i.uxTaskPriorityGet), (36 bytes).
    Removing tasks.o(i.uxTaskPriorityGetFromISR), (68 bytes).
    Removing tasks.o(i.uxTaskResetEventItemValue), (28 bytes).
    Removing tasks.o(i.vTaskDelayUntil), (212 bytes).
    Removing tasks.o(i.vTaskDelete), (244 bytes).
    Removing tasks.o(i.vTaskEndScheduler), (36 bytes).
    Removing tasks.o(i.vTaskGetInfo), (120 bytes).
    Removing tasks.o(i.vTaskNotifyGiveFromISR), (240 bytes).
    Removing tasks.o(i.vTaskPlaceOnUnorderedEventList), (108 bytes).
    Removing tasks.o(i.vTaskPrioritySet), (276 bytes).
    Removing tasks.o(i.vTaskResume), (144 bytes).
    Removing tasks.o(i.vTaskSetTaskNumber), (8 bytes).
    Removing tasks.o(i.vTaskSuspend), (228 bytes).
    Removing tasks.o(i.xTaskGenericNotify), (260 bytes).
    Removing tasks.o(i.xTaskGenericNotifyFromISR), (324 bytes).
    Removing tasks.o(i.xTaskGetCurrentTaskHandle), (12 bytes).
    Removing tasks.o(i.xTaskGetTickCount), (12 bytes).
    Removing tasks.o(i.xTaskGetTickCountFromISR), (20 bytes).
    Removing tasks.o(i.xTaskNotifyStateClear), (52 bytes).
    Removing tasks.o(i.xTaskNotifyWait), (160 bytes).
    Removing tasks.o(i.xTaskRemoveFromUnorderedEventList), (176 bytes).
    Removing tasks.o(i.xTaskResumeFromISR), (180 bytes).
    Removing queue.o(i.pcQueueGetName), (44 bytes).
    Removing queue.o(i.ucQueueGetQueueType), (8 bytes).
    Removing queue.o(i.uxQueueGetQueueNumber), (6 bytes).
    Removing queue.o(i.uxQueueMessagesWaiting), (42 bytes).
    Removing queue.o(i.uxQueueMessagesWaitingFromISR), (30 bytes).
    Removing queue.o(i.uxQueueSpacesAvailable), (48 bytes).
    Removing queue.o(i.vQueueAddToRegistry), (44 bytes).
    Removing queue.o(i.vQueueDelete), (44 bytes).
    Removing queue.o(i.vQueueSetQueueNumber), (4 bytes).
    Removing queue.o(i.vQueueUnregisterQueue), (48 bytes).
    Removing queue.o(i.xQueueCreateCountingSemaphore), (92 bytes).
    Removing queue.o(i.xQueueGenericSendFromISR), (248 bytes).
    Removing queue.o(i.xQueueGiveFromISR), (224 bytes).
    Removing queue.o(i.xQueueGiveMutexRecursive), (72 bytes).
    Removing queue.o(i.xQueueIsQueueEmptyFromISR), (38 bytes).
    Removing queue.o(i.xQueueIsQueueFullFromISR), (42 bytes).
    Removing queue.o(i.xQueuePeekFromISR), (176 bytes).
    Removing queue.o(i.xQueueReceiveFromISR), (202 bytes).
    Removing queue.o(i.xQueueTakeMutexRecursive), (82 bytes).
    Removing queue.o(.bss), (64 bytes).
    Removing heap_4.o(i.vPortInitialiseBlocks), (2 bytes).
    Removing heap_4.o(i.xPortGetFreeHeapSize), (12 bytes).
    Removing heap_4.o(i.xPortGetMinimumEverFreeHeapSize), (12 bytes).
    Removing port.o(i.vPortEndScheduler), (48 bytes).
    Removing port.o(i.vPortValidateInterruptPriority), (120 bytes).
    Removing dneg.o(.text), (6 bytes).

551 unused section(s) (total 24535 bytes) removed from the image.

==============================================================================

Image Symbol Table

    Local Symbols

    Symbol Name                              Value     Ov Type        Size  Object(Section)

    ../clib/../cmprslib/zerorunl2.c          0x00000000   Number         0  __dczerorl2.o ABSOLUTE
    ../clib/microlib/ctype/ctype.c           0x00000000   Number         0  ispunct_o.o ABSOLUTE
    ../clib/microlib/ctype/ctype.c           0x00000000   Number         0  ctype_o.o ABSOLUTE
    ../clib/microlib/ctype/ctype.c           0x00000000   Number         0  isalnum_o.o ABSOLUTE
    ../clib/microlib/ctype/ctype.c           0x00000000   Number         0  isalpha_o.o ABSOLUTE
    ../clib/microlib/ctype/ctype.c           0x00000000   Number         0  isblank_o.o ABSOLUTE
    ../clib/microlib/ctype/ctype.c           0x00000000   Number         0  isupper_o.o ABSOLUTE
    ../clib/microlib/ctype/ctype.c           0x00000000   Number         0  iscntrl_o.o ABSOLUTE
    ../clib/microlib/ctype/ctype.c           0x00000000   Number         0  isdigit_o.o ABSOLUTE
    ../clib/microlib/ctype/ctype.c           0x00000000   Number         0  isgraph_o.o ABSOLUTE
    ../clib/microlib/ctype/ctype.c           0x00000000   Number         0  islower_o.o ABSOLUTE
    ../clib/microlib/ctype/ctype.c           0x00000000   Number         0  isxdigit_o.o ABSOLUTE
    ../clib/microlib/ctype/ctype.c           0x00000000   Number         0  isprint_o.o ABSOLUTE
    ../clib/microlib/ctype/ctype.c           0x00000000   Number         0  ctype_c.o ABSOLUTE
    ../clib/microlib/ctype/ctype.c           0x00000000   Number         0  isspace_o.o ABSOLUTE
    ../clib/microlib/ctype/ctype.c           0x00000000   Number         0  isspace_c.o ABSOLUTE
    ../clib/microlib/ctype/tolower.c         0x00000000   Number         0  tolower.o ABSOLUTE
    ../clib/microlib/division.c              0x00000000   Number         0  uldiv.o ABSOLUTE
    ../clib/microlib/division.c              0x00000000   Number         0  uidiv.o ABSOLUTE
    ../clib/microlib/errno.c                 0x00000000   Number         0  errno.o ABSOLUTE
    ../clib/microlib/init/entry.s            0x00000000   Number         0  entry7b.o ABSOLUTE
    ../clib/microlib/init/entry.s            0x00000000   Number         0  entry7a.o ABSOLUTE
    ../clib/microlib/init/entry.s            0x00000000   Number         0  entry9a.o ABSOLUTE
    ../clib/microlib/init/entry.s            0x00000000   Number         0  entry.o ABSOLUTE
    ../clib/microlib/init/entry.s            0x00000000   Number         0  entry5.o ABSOLUTE
    ../clib/microlib/init/entry.s            0x00000000   Number         0  entry8b.o ABSOLUTE
    ../clib/microlib/init/entry.s            0x00000000   Number         0  entry10a.o ABSOLUTE
    ../clib/microlib/init/entry.s            0x00000000   Number         0  entry11b.o ABSOLUTE
    ../clib/microlib/init/entry.s            0x00000000   Number         0  entry8a.o ABSOLUTE
    ../clib/microlib/init/entry.s            0x00000000   Number         0  entry9b.o ABSOLUTE
    ../clib/microlib/init/entry.s            0x00000000   Number         0  entry11a.o ABSOLUTE
    ../clib/microlib/init/entry.s            0x00000000   Number         0  entry10b.o ABSOLUTE
    ../clib/microlib/init/entry.s            0x00000000   Number         0  entry2.o ABSOLUTE
    ../clib/microlib/locale/ilconv.c         0x00000000   Number         0  ilconv.o ABSOLUTE
    ../clib/microlib/locale/localeconv.c     0x00000000   Number         0  localeconv.o ABSOLUTE
    ../clib/microlib/longlong.c              0x00000000   Number         0  llsshr.o ABSOLUTE
    ../clib/microlib/longlong.c              0x00000000   Number         0  llshl.o ABSOLUTE
    ../clib/microlib/longlong.c              0x00000000   Number         0  llushr.o ABSOLUTE
    ../clib/microlib/malloc/malloc.c         0x00000000   Number         0  mallocr.o ABSOLUTE
    ../clib/microlib/malloc/malloc.c         0x00000000   Number         0  malloc.o ABSOLUTE
    ../clib/microlib/malloc/malloc.c         0x00000000   Number         0  malloca.o ABSOLUTE
    ../clib/microlib/malloc/malloc.c         0x00000000   Number         0  mallocra.o ABSOLUTE
    ../clib/microlib/malloc/mvars.c          0x00000000   Number         0  mvars.o ABSOLUTE
    ../clib/microlib/printf/printf.c         0x00000000   Number         0  printf0.o ABSOLUTE
    ../clib/microlib/printf/printf.c         0x00000000   Number         0  printfb.o ABSOLUTE
    ../clib/microlib/printf/printf.c         0x00000000   Number         0  printf6.o ABSOLUTE
    ../clib/microlib/printf/printf.c         0x00000000   Number         0  printf7.o ABSOLUTE
    ../clib/microlib/printf/printf.c         0x00000000   Number         0  printf8.o ABSOLUTE
    ../clib/microlib/printf/printf.c         0x00000000   Number         0  printfa.o ABSOLUTE
    ../clib/microlib/printf/printf.c         0x00000000   Number         0  printf5.o ABSOLUTE
    ../clib/microlib/printf/printf.c         0x00000000   Number         0  printf1.o ABSOLUTE
    ../clib/microlib/printf/printf.c         0x00000000   Number         0  printf4.o ABSOLUTE
    ../clib/microlib/printf/printf.c         0x00000000   Number         0  printf2.o ABSOLUTE
    ../clib/microlib/printf/printf.c         0x00000000   Number         0  printf3.o ABSOLUTE
    ../clib/microlib/printf/stubs.s          0x00000000   Number         0  stubs.o ABSOLUTE
    ../clib/microlib/string/memcpy.c         0x00000000   Number         0  memcpy.o ABSOLUTE
    ../clib/microlib/string/memcpy.c         0x00000000   Number         0  memcpya.o ABSOLUTE
    ../clib/microlib/string/memcpy.c         0x00000000   Number         0  memcpyc.o ABSOLUTE
    ../clib/microlib/string/memcpy.c         0x00000000   Number         0  memcpyb.o ABSOLUTE
    ../clib/microlib/string/memset.c         0x00000000   Number         0  memset.o ABSOLUTE
    ../clib/microlib/string/memset.c         0x00000000   Number         0  memseta.o ABSOLUTE
    ../clib/microlib/string/strcmp.c         0x00000000   Number         0  strcmp.o ABSOLUTE
    ../clib/microlib/string/strcpy.c         0x00000000   Number         0  strcpy.o ABSOLUTE
    ../clib/microlib/string/strlen.c         0x00000000   Number         0  strlen.o ABSOLUTE
    ../clib/microlib/string/strncmp.c        0x00000000   Number         0  strncmp.o ABSOLUTE
    ../clib/microlib/string/strstr.c         0x00000000   Number         0  strstr.o ABSOLUTE
    ../clib/microlib/stubs.s                 0x00000000   Number         0  useno.o ABSOLUTE
    ../clib/microlib/stubs.s                 0x00000000   Number         0  iusefp.o ABSOLUTE
    ../clib/scanf.c                          0x00000000   Number         0  _scanf_longlong.o ABSOLUTE
    ../clib/scanf.c                          0x00000000   Number         0  strtod.o ABSOLUTE
    ../clib/scanf.c                          0x00000000   Number         0  _strtoul.o ABSOLUTE
    ../clib/scanf.c                          0x00000000   Number         0  _sgetc.o ABSOLUTE
    ../clib/scanf.c                          0x00000000   Number         0  scanf_char.o ABSOLUTE
    ../clib/scanf.c                          0x00000000   Number         0  scanf_fp.o ABSOLUTE
    ../clib/scanf.c                          0x00000000   Number         0  _chval.o ABSOLUTE
    ../clib/scanf.c                          0x00000000   Number         0  sscanf.o ABSOLUTE
    ../clib/scanf.c                          0x00000000   Number         0  atoi.o ABSOLUTE
    ../clib/scanf.c                          0x00000000   Number         0  _scanf.o ABSOLUTE
    ../clib/scanf.c                          0x00000000   Number         0  _scanf_str.o ABSOLUTE
    ../clib/scanf.c                          0x00000000   Number         0  strtol.o ABSOLUTE
    ../clib/scanf.c                          0x00000000   Number         0  _scanf_int.o ABSOLUTE
    ../fplib/microlib/d2f.c                  0x00000000   Number         0  d2f.o ABSOLUTE
    ../fplib/microlib/f2d.c                  0x00000000   Number         0  f2d.o ABSOLUTE
    ../fplib/microlib/fpadd.c                0x00000000   Number         0  dadd.o ABSOLUTE
    ../fplib/microlib/fpdiv.c                0x00000000   Number         0  ddiv.o ABSOLUTE
    ../fplib/microlib/fpepilogue.c           0x00000000   Number         0  depilogue.o ABSOLUTE
    ../fplib/microlib/fpepilogue.c           0x00000000   Number         0  fepilogue.o ABSOLUTE
    ../fplib/microlib/fpfix.c                0x00000000   Number         0  dfixi.o ABSOLUTE
    ../fplib/microlib/fpfix.c                0x00000000   Number         0  dfixul.o ABSOLUTE
    ../fplib/microlib/fpflt.c                0x00000000   Number         0  dflti.o ABSOLUTE
    ../fplib/microlib/fpflt.c                0x00000000   Number         0  dfltul.o ABSOLUTE
    ../fplib/microlib/fpflt.c                0x00000000   Number         0  dfltui.o ABSOLUTE
    ../fplib/microlib/fpmul.c                0x00000000   Number         0  dmul.o ABSOLUTE
    ../fplib/microlib/fpneg.c                0x00000000   Number         0  dneg.o ABSOLUTE
    ../fplib/microlib/fpscalb.c              0x00000000   Number         0  dscalb.o ABSOLUTE
    ../fplib/microlib/fpsqrt.c               0x00000000   Number         0  dsqrt.o ABSOLUTE
    ../mathlib/dunder.c                      0x00000000   Number         0  dunder.o ABSOLUTE
    ../mathlib/fabs.c                        0x00000000   Number         0  fabs.o ABSOLUTE
    ../mathlib/fpclassify.c                  0x00000000   Number         0  fpclassify.o ABSOLUTE
    ../mathlib/poly.c                        0x00000000   Number         0  poly.o ABSOLUTE
    ../mathlib/pow.c                         0x00000000   Number         0  pow_x.o ABSOLUTE
    ../mathlib/pow.c                         0x00000000   Number         0  pow.o ABSOLUTE
    ../mathlib/qnan.c                        0x00000000   Number         0  qnan.o ABSOLUTE
    ../mathlib/sqrt.c                        0x00000000   Number         0  sqrt_x.o ABSOLUTE
    ../mathlib/sqrt.c                        0x00000000   Number         0  sqrt.o ABSOLUTE
    ../mathlib/strtod.c                      0x00000000   Number         0  strtod.o ABSOLUTE
    ..\CMSIS\startup_stm32f40_41xxx.s        0x00000000   Number         0  startup_stm32f40_41xxx.o ABSOLUTE
    ..\DEVICE_LIB\src\misc.c                 0x00000000   Number         0  misc.o ABSOLUTE
    ..\DEVICE_LIB\src\stm32f4xx_adc.c        0x00000000   Number         0  stm32f4xx_adc.o ABSOLUTE
    ..\DEVICE_LIB\src\stm32f4xx_exti.c       0x00000000   Number         0  stm32f4xx_exti.o ABSOLUTE
    ..\DEVICE_LIB\src\stm32f4xx_gpio.c       0x00000000   Number         0  stm32f4xx_gpio.o ABSOLUTE
    ..\DEVICE_LIB\src\stm32f4xx_i2c.c        0x00000000   Number         0  stm32f4xx_i2c.o ABSOLUTE
    ..\DEVICE_LIB\src\stm32f4xx_iwdg.c       0x00000000   Number         0  stm32f4xx_iwdg.o ABSOLUTE
    ..\DEVICE_LIB\src\stm32f4xx_pwr.c        0x00000000   Number         0  stm32f4xx_pwr.o ABSOLUTE
    ..\DEVICE_LIB\src\stm32f4xx_rcc.c        0x00000000   Number         0  stm32f4xx_rcc.o ABSOLUTE
    ..\DEVICE_LIB\src\stm32f4xx_rtc.c        0x00000000   Number         0  stm32f4xx_rtc.o ABSOLUTE
    ..\DEVICE_LIB\src\stm32f4xx_spi.c        0x00000000   Number         0  stm32f4xx_spi.o ABSOLUTE
    ..\DEVICE_LIB\src\stm32f4xx_tim.c        0x00000000   Number         0  stm32f4xx_tim.o ABSOLUTE
    ..\DEVICE_LIB\src\stm32f4xx_usart.c      0x00000000   Number         0  stm32f4xx_usart.o ABSOLUTE
    ..\DEVICE_LIB\src\stm32f4xx_wwdg.c       0x00000000   Number         0  stm32f4xx_wwdg.o ABSOLUTE
    ..\FreeRTOS\portable\heap_4.c            0x00000000   Number         0  heap_4.o ABSOLUTE
    ..\FreeRTOS\portable\port.c              0x00000000   Number         0  port.o ABSOLUTE
    ..\FreeRTOS\source\list.c                0x00000000   Number         0  list.o ABSOLUTE
    ..\FreeRTOS\source\queue.c               0x00000000   Number         0  queue.o ABSOLUTE
    ..\FreeRTOS\source\tasks.c               0x00000000   Number         0  tasks.o ABSOLUTE
    ..\HARDWARE\I2C.c                        0x00000000   Number         0  i2c.o ABSOLUTE
    ..\HARDWARE\adc.c                        0x00000000   Number         0  adc.o ABSOLUTE
    ..\HARDWARE\cJSON.c                      0x00000000   Number         0  cjson.o ABSOLUTE
    ..\HARDWARE\delay.c                      0x00000000   Number         0  delay.o ABSOLUTE
    ..\HARDWARE\esp8266.c                    0x00000000   Number         0  esp8266.o ABSOLUTE
    ..\HARDWARE\led.c                        0x00000000   Number         0  led.o ABSOLUTE
    ..\HARDWARE\motor.c                      0x00000000   Number         0  motor.o ABSOLUTE
    ..\HARDWARE\mqtt.c                       0x00000000   Number         0  mqtt.o ABSOLUTE
    ..\HARDWARE\nettime.c                    0x00000000   Number         0  nettime.o ABSOLUTE
    ..\HARDWARE\oled.c                       0x00000000   Number         0  oled.o ABSOLUTE
    ..\HARDWARE\rtc.c                        0x00000000   Number         0  rtc.o ABSOLUTE
    ..\HARDWARE\sys.c                        0x00000000   Number         0  sys.o ABSOLUTE
    ..\HARDWARE\usart.c                      0x00000000   Number         0  usart.o ABSOLUTE
    ..\HARDWARE\usart2.c                     0x00000000   Number         0  usart2.o ABSOLUTE
    ..\HARDWARE\ws2812.c                     0x00000000   Number         0  ws2812.o ABSOLUTE
    ..\SYSTEM\system_stm32f4xx.c             0x00000000   Number         0  system_stm32f4xx.o ABSOLUTE
    ..\\DEVICE_LIB\\src\\misc.c              0x00000000   Number         0  misc.o ABSOLUTE
    ..\\DEVICE_LIB\\src\\stm32f4xx_adc.c     0x00000000   Number         0  stm32f4xx_adc.o ABSOLUTE
    ..\\DEVICE_LIB\\src\\stm32f4xx_exti.c    0x00000000   Number         0  stm32f4xx_exti.o ABSOLUTE
    ..\\DEVICE_LIB\\src\\stm32f4xx_gpio.c    0x00000000   Number         0  stm32f4xx_gpio.o ABSOLUTE
    ..\\DEVICE_LIB\\src\\stm32f4xx_i2c.c     0x00000000   Number         0  stm32f4xx_i2c.o ABSOLUTE
    ..\\DEVICE_LIB\\src\\stm32f4xx_iwdg.c    0x00000000   Number         0  stm32f4xx_iwdg.o ABSOLUTE
    ..\\DEVICE_LIB\\src\\stm32f4xx_pwr.c     0x00000000   Number         0  stm32f4xx_pwr.o ABSOLUTE
    ..\\DEVICE_LIB\\src\\stm32f4xx_rcc.c     0x00000000   Number         0  stm32f4xx_rcc.o ABSOLUTE
    ..\\DEVICE_LIB\\src\\stm32f4xx_rtc.c     0x00000000   Number         0  stm32f4xx_rtc.o ABSOLUTE
    ..\\DEVICE_LIB\\src\\stm32f4xx_spi.c     0x00000000   Number         0  stm32f4xx_spi.o ABSOLUTE
    ..\\DEVICE_LIB\\src\\stm32f4xx_tim.c     0x00000000   Number         0  stm32f4xx_tim.o ABSOLUTE
    ..\\DEVICE_LIB\\src\\stm32f4xx_usart.c   0x00000000   Number         0  stm32f4xx_usart.o ABSOLUTE
    ..\\DEVICE_LIB\\src\\stm32f4xx_wwdg.c    0x00000000   Number         0  stm32f4xx_wwdg.o ABSOLUTE
    ..\\FreeRTOS\\portable\\port.c           0x00000000   Number         0  port.o ABSOLUTE
    ..\\HARDWARE\\I2C.c                      0x00000000   Number         0  i2c.o ABSOLUTE
    ..\\HARDWARE\\adc.c                      0x00000000   Number         0  adc.o ABSOLUTE
    ..\\HARDWARE\\delay.c                    0x00000000   Number         0  delay.o ABSOLUTE
    ..\\HARDWARE\\esp8266.c                  0x00000000   Number         0  esp8266.o ABSOLUTE
    ..\\HARDWARE\\led.c                      0x00000000   Number         0  led.o ABSOLUTE
    ..\\HARDWARE\\motor.c                    0x00000000   Number         0  motor.o ABSOLUTE
    ..\\HARDWARE\\mqtt.c                     0x00000000   Number         0  mqtt.o ABSOLUTE
    ..\\HARDWARE\\nettime.c                  0x00000000   Number         0  nettime.o ABSOLUTE
    ..\\HARDWARE\\oled.c                     0x00000000   Number         0  oled.o ABSOLUTE
    ..\\HARDWARE\\rtc.c                      0x00000000   Number         0  rtc.o ABSOLUTE
    ..\\HARDWARE\\sys.c                      0x00000000   Number         0  sys.o ABSOLUTE
    ..\\HARDWARE\\usart.c                    0x00000000   Number         0  usart.o ABSOLUTE
    ..\\HARDWARE\\usart2.c                   0x00000000   Number         0  usart2.o ABSOLUTE
    ..\\HARDWARE\\ws2812.c                   0x00000000   Number         0  ws2812.o ABSOLUTE
    ..\\SYSTEM\\system_stm32f4xx.c           0x00000000   Number         0  system_stm32f4xx.o ABSOLUTE
    cdcmple.s                                0x00000000   Number         0  cdcmple.o ABSOLUTE
    cdrcmple.s                               0x00000000   Number         0  cdrcmple.o ABSOLUTE
    dc.s                                     0x00000000   Number         0  dc.o ABSOLUTE
    handlers.s                               0x00000000   Number         0  handlers.o ABSOLUTE
    init.s                                   0x00000000   Number         0  init.o ABSOLUTE
    main.c                                   0x00000000   Number         0  main.o ABSOLUTE
    main.c                                   0x00000000   Number         0  main.o ABSOLUTE
    stm32f4xx_it.c                           0x00000000   Number         0  stm32f4xx_it.o ABSOLUTE
    stm32f4xx_it.c                           0x00000000   Number         0  stm32f4xx_it.o ABSOLUTE
    RESET                                    0x08000000   Section      392  startup_stm32f40_41xxx.o(RESET)
    .ARM.Collect$$$$00000000                 0x08000188   Section        0  entry.o(.ARM.Collect$$$$00000000)
    .ARM.Collect$$$$00000001                 0x08000188   Section        4  entry2.o(.ARM.Collect$$$$00000001)
    .ARM.Collect$$$$00000004                 0x0800018c   Section        4  entry5.o(.ARM.Collect$$$$00000004)
    .ARM.Collect$$$$00000008                 0x08000190   Section        0  entry7b.o(.ARM.Collect$$$$00000008)
    .ARM.Collect$$$$0000000A                 0x08000190   Section        0  entry8b.o(.ARM.Collect$$$$0000000A)
    .ARM.Collect$$$$0000000B                 0x08000190   Section        8  entry9a.o(.ARM.Collect$$$$0000000B)
    .ARM.Collect$$$$0000000D                 0x08000198   Section        0  entry10a.o(.ARM.Collect$$$$0000000D)
    .ARM.Collect$$$$0000000F                 0x08000198   Section        0  entry11a.o(.ARM.Collect$$$$0000000F)
    .ARM.Collect$$$$00002712                 0x08000198   Section        4  entry2.o(.ARM.Collect$$$$00002712)
    __lit__00000000                          0x08000198   Data           4  entry2.o(.ARM.Collect$$$$00002712)
    .emb_text                                0x0800019c   Section      182  port.o(.emb_text)
    $v0                                      0x0800019c   Number         0  port.o(.emb_text)
    .text                                    0x08000254   Section       36  startup_stm32f40_41xxx.o(.text)
    $v0                                      0x08000254   Number         0  startup_stm32f40_41xxx.o(.text)
    .text                                    0x08000278   Section        0  tolower.o(.text)
    .text                                    0x08000284   Section        0  localeconv.o(.text)
    .text                                    0x0800028c   Section        0  memcpy.o(.text)
    .text                                    0x080002b4   Section        0  memseta.o(.text)
    .text                                    0x080002d8   Section        0  strstr.o(.text)
    .text                                    0x080002fc   Section        0  strlen.o(.text)
    .text                                    0x0800030a   Section        0  strcmp.o(.text)
    .text                                    0x08000326   Section        0  strcpy.o(.text)
    .text                                    0x08000338   Section        0  strncmp.o(.text)
    .text                                    0x08000358   Section        0  sscanf.o(.text)
    .text                                    0x08000390   Section        0  atoi.o(.text)
    .text                                    0x080003aa   Section        0  dadd.o(.text)
    .text                                    0x080004f8   Section        0  dmul.o(.text)
    .text                                    0x080005dc   Section        0  ddiv.o(.text)
    .text                                    0x080006ba   Section        0  dflti.o(.text)
    .text                                    0x080006dc   Section        0  dfltui.o(.text)
    .text                                    0x080006f6   Section        0  dfixi.o(.text)
    .text                                    0x08000734   Section        0  f2d.o(.text)
    .text                                    0x0800075c   Section       48  cdcmple.o(.text)
    .text                                    0x0800078c   Section       48  cdrcmple.o(.text)
    .text                                    0x080007bc   Section        0  d2f.o(.text)
    .text                                    0x080007f4   Section        0  uidiv.o(.text)
    .text                                    0x08000820   Section        0  uldiv.o(.text)
    .text                                    0x08000882   Section        0  llshl.o(.text)
    .text                                    0x080008a0   Section        0  llushr.o(.text)
    .text                                    0x080008c0   Section        0  llsshr.o(.text)
    .text                                    0x080008e4   Section        0  _scanf_longlong.o(.text)
    .text                                    0x08000a3a   Section        0  _scanf_int.o(.text)
    .text                                    0x08000b86   Section        0  _scanf_str.o(.text)
    .text                                    0x08000c68   Section        0  scanf_fp.o(.text)
    _fp_value                                0x08000c69   Thumb Code   296  scanf_fp.o(.text)
    .text                                    0x08000fc8   Section        0  scanf_char.o(.text)
    _scanf_char_input                        0x08000fc9   Thumb Code    12  scanf_char.o(.text)
    .text                                    0x08000ff0   Section        0  _sgetc.o(.text)
    .text                                    0x08001030   Section        0  strtod.o(.text)
    _local_sscanf                            0x08001031   Thumb Code    54  strtod.o(.text)
    .text                                    0x080010cc   Section        0  strtol.o(.text)
    .text                                    0x0800113c   Section        0  iusefp.o(.text)
    .text                                    0x0800113c   Section        0  fepilogue.o(.text)
    .text                                    0x080011aa   Section        0  depilogue.o(.text)
    .text                                    0x08001264   Section        0  dscalb.o(.text)
    .text                                    0x08001292   Section        0  dfixul.o(.text)
    .text                                    0x080012c4   Section       36  init.o(.text)
    .text                                    0x080012e8   Section        0  ctype_o.o(.text)
    .text                                    0x080012f0   Section        0  isspace_o.o(.text)
    .text                                    0x08001302   Section        0  _chval.o(.text)
    .text                                    0x08001320   Section        0  _scanf.o(.text)
    .text                                    0x0800164c   Section        0  _strtoul.o(.text)
    .text                                    0x080016ea   Section        0  dsqrt.o(.text)
    .text                                    0x0800178c   Section        0  dfltul.o(.text)
    .text                                    0x080017a4   Section        0  __dczerorl2.o(.text)
    i.ADC_Cmd                                0x080017fa   Section        0  stm32f4xx_adc.o(i.ADC_Cmd)
    i.ADC_CommonInit                         0x08001810   Section        0  stm32f4xx_adc.o(i.ADC_CommonInit)
    i.ADC_GetConversionValue                 0x08001840   Section        0  stm32f4xx_adc.o(i.ADC_GetConversionValue)
    i.ADC_GetFlagStatus                      0x08001848   Section        0  stm32f4xx_adc.o(i.ADC_GetFlagStatus)
    i.ADC_Init                               0x0800185c   Section        0  stm32f4xx_adc.o(i.ADC_Init)
    i.ADC_RegularChannelConfig               0x080018b0   Section        0  stm32f4xx_adc.o(i.ADC_RegularChannelConfig)
    i.ADC_SoftwareStartConv                  0x08001968   Section        0  stm32f4xx_adc.o(i.ADC_SoftwareStartConv)
    i.BEEP_Init                              0x08001974   Section        0  led.o(i.BEEP_Init)
    i.BusFault_Handler                       0x080019ac   Section        0  stm32f4xx_it.o(i.BusFault_Handler)
    i.DHT11_Config                           0x080019b0   Section        0  adc.o(i.DHT11_Config)
    i.DHT11_GetACK                           0x080019f0   Section        0  adc.o(i.DHT11_GetACK)
    i.DHT11_GetValue                         0x08001a48   Section        0  adc.o(i.DHT11_GetValue)
    i.DHT11_ReadBit                          0x08001aa0   Section        0  adc.o(i.DHT11_ReadBit)
    i.DHT11_SetPinInputMode                  0x08001af4   Section        0  adc.o(i.DHT11_SetPinInputMode)
    i.DHT11_SetPinOutputMode                 0x08001b1c   Section        0  adc.o(i.DHT11_SetPinOutputMode)
    i.DHT11_StartSignal                      0x08001b54   Section        0  adc.o(i.DHT11_StartSignal)
    i.DebugMon_Handler                       0x08001b8c   Section        0  stm32f4xx_it.o(i.DebugMon_Handler)
    i.EXTI_ClearITPendingBit                 0x08001b90   Section        0  stm32f4xx_exti.o(i.EXTI_ClearITPendingBit)
    i.EXTI_Init                              0x08001b9c   Section        0  stm32f4xx_exti.o(i.EXTI_Init)
    i.Esp8266_Init                           0x08001c30   Section        0  esp8266.o(i.Esp8266_Init)
    i.FanConfig                              0x08001e94   Section        0  motor.o(i.FanConfig)
    i.FanInit                                0x08001f30   Section        0  motor.o(i.FanInit)
    i.Fire_Config                            0x08001f70   Section        0  adc.o(i.Fire_Config)
    i.GPIO_Init                              0x08001fec   Section        0  stm32f4xx_gpio.o(i.GPIO_Init)
    i.GPIO_PinAFConfig                       0x0800207c   Section        0  stm32f4xx_gpio.o(i.GPIO_PinAFConfig)
    i.GPIO_ReadInputDataBit                  0x080020c2   Section        0  stm32f4xx_gpio.o(i.GPIO_ReadInputDataBit)
    i.GPIO_ResetBits                         0x080020d4   Section        0  stm32f4xx_gpio.o(i.GPIO_ResetBits)
    i.GPIO_SetBits                           0x080020d8   Section        0  stm32f4xx_gpio.o(i.GPIO_SetBits)
    i.Get_Network_Time                       0x080020dc   Section        0  nettime.o(i.Get_Network_Time)
    i.Get_Network_Weather                    0x08002388   Section        0  nettime.o(i.Get_Network_Weather)
    i.HardFault_Handler                      0x0800263c   Section        0  stm32f4xx_it.o(i.HardFault_Handler)
    i.IIC_Config                             0x08002640   Section        0  i2c.o(i.IIC_Config)
    i.IIC_SDASetInputMode                    0x08002694   Section        0  i2c.o(i.IIC_SDASetInputMode)
    IIC_SDASetInputMode                      0x08002695   Thumb Code    36  i2c.o(i.IIC_SDASetInputMode)
    i.IIC_SDASetOutputMode                   0x080026bc   Section        0  i2c.o(i.IIC_SDASetOutputMode)
    IIC_SDASetOutputMode                     0x080026bd   Thumb Code    48  i2c.o(i.IIC_SDASetOutputMode)
    i.IIC_SendByte                           0x080026f0   Section        0  i2c.o(i.IIC_SendByte)
    i.IIC_Start                              0x08002770   Section        0  i2c.o(i.IIC_Start)
    i.IIC_Stop                               0x080027a8   Section        0  i2c.o(i.IIC_Stop)
    i.IIC_WaitSlaveAck                       0x080027f0   Section        0  i2c.o(i.IIC_WaitSlaveAck)
    i.KEY_Init                               0x08002830   Section        0  led.o(i.KEY_Init)
    i.LED_Init                               0x0800286c   Section        0  led.o(i.LED_Init)
    i.LightSensor_Config                     0x080028b4   Section        0  adc.o(i.LightSensor_Config)
    i.MemManage_Handler                      0x08002930   Section        0  stm32f4xx_it.o(i.MemManage_Handler)
    i.Motor_Config                           0x08002934   Section        0  motor.o(i.Motor_Config)
    i.Motorcw1                               0x08002964   Section        0  motor.o(i.Motorcw1)
    i.Motorcw2                               0x08002a24   Section        0  motor.o(i.Motorcw2)
    i.Mqtt_Connect_Aliyun                    0x08002ae4   Section        0  mqtt.o(i.Mqtt_Connect_Aliyun)
    i.NMI_Handler                            0x08002dd0   Section        0  stm32f4xx_it.o(i.NMI_Handler)
    i.NVIC_Init                              0x08002dd4   Section        0  misc.o(i.NVIC_Init)
    i.OLED_Clear                             0x08002e4c   Section        0  oled.o(i.OLED_Clear)
    i.OLED_DrawBMP                           0x08002e76   Section        0  oled.o(i.OLED_DrawBMP)
    i.OLED_Init                              0x08002eec   Section        0  oled.o(i.OLED_Init)
    i.OLED_Pow                               0x08002f84   Section        0  oled.o(i.OLED_Pow)
    i.OLED_SetCursor                         0x08002f98   Section        0  oled.o(i.OLED_SetCursor)
    i.OLED_ShowChar                          0x08002fbc   Section        0  oled.o(i.OLED_ShowChar)
    i.OLED_ShowChinese                       0x08003030   Section        0  oled.o(i.OLED_ShowChinese)
    i.OLED_ShowChinese2                      0x08003074   Section        0  oled.o(i.OLED_ShowChinese2)
    i.OLED_ShowNum                           0x080030b8   Section        0  oled.o(i.OLED_ShowNum)
    i.OLED_ShowString                        0x080030fc   Section        0  oled.o(i.OLED_ShowString)
    i.OLED_WriteCommand                      0x08003124   Section        0  oled.o(i.OLED_WriteCommand)
    i.OLED_WriteData                         0x08003150   Section        0  oled.o(i.OLED_WriteData)
    i.PWR_BackupAccessCmd                    0x0800317c   Section        0  stm32f4xx_pwr.o(i.PWR_BackupAccessCmd)
    i.RCC_AHB1PeriphClockCmd                 0x08003188   Section        0  stm32f4xx_rcc.o(i.RCC_AHB1PeriphClockCmd)
    i.RCC_APB1PeriphClockCmd                 0x080031a8   Section        0  stm32f4xx_rcc.o(i.RCC_APB1PeriphClockCmd)
    i.RCC_APB2PeriphClockCmd                 0x080031c8   Section        0  stm32f4xx_rcc.o(i.RCC_APB2PeriphClockCmd)
    i.RCC_GetClocksFreq                      0x080031e8   Section        0  stm32f4xx_rcc.o(i.RCC_GetClocksFreq)
    i.RCC_GetFlagStatus                      0x080032d0   Section        0  stm32f4xx_rcc.o(i.RCC_GetFlagStatus)
    i.RCC_LSEConfig                          0x08003310   Section        0  stm32f4xx_rcc.o(i.RCC_LSEConfig)
    i.RCC_RTCCLKCmd                          0x0800333c   Section        0  stm32f4xx_rcc.o(i.RCC_RTCCLKCmd)
    i.RCC_RTCCLKConfig                       0x08003348   Section        0  stm32f4xx_rcc.o(i.RCC_RTCCLKConfig)
    i.RTC_Bcd2ToByte                         0x08003384   Section        0  stm32f4xx_rtc.o(i.RTC_Bcd2ToByte)
    RTC_Bcd2ToByte                           0x08003385   Thumb Code    22  stm32f4xx_rtc.o(i.RTC_Bcd2ToByte)
    i.RTC_ByteToBcd2                         0x0800339a   Section        0  stm32f4xx_rtc.o(i.RTC_ByteToBcd2)
    RTC_ByteToBcd2                           0x0800339b   Thumb Code    28  stm32f4xx_rtc.o(i.RTC_ByteToBcd2)
    i.RTC_ClearITPendingBit                  0x080033b8   Section        0  stm32f4xx_rtc.o(i.RTC_ClearITPendingBit)
    i.RTC_Config                             0x080033d8   Section        0  rtc.o(i.RTC_Config)
    i.RTC_EnterInitMode                      0x08003540   Section        0  stm32f4xx_rtc.o(i.RTC_EnterInitMode)
    i.RTC_ExitInitMode                       0x08003590   Section        0  stm32f4xx_rtc.o(i.RTC_ExitInitMode)
    i.RTC_GetDate                            0x080035a4   Section        0  stm32f4xx_rtc.o(i.RTC_GetDate)
    i.RTC_GetITStatus                        0x080035f0   Section        0  stm32f4xx_rtc.o(i.RTC_GetITStatus)
    i.RTC_GetTime                            0x08003630   Section        0  stm32f4xx_rtc.o(i.RTC_GetTime)
    i.RTC_ITConfig                           0x08003680   Section        0  stm32f4xx_rtc.o(i.RTC_ITConfig)
    i.RTC_Init                               0x080036e4   Section        0  stm32f4xx_rtc.o(i.RTC_Init)
    i.RTC_SetDate                            0x08003748   Section        0  stm32f4xx_rtc.o(i.RTC_SetDate)
    i.RTC_SetTime                            0x08003810   Section        0  stm32f4xx_rtc.o(i.RTC_SetTime)
    i.RTC_SetWakeUpCounter                   0x080038e0   Section        0  stm32f4xx_rtc.o(i.RTC_SetWakeUpCounter)
    i.RTC_WKUP_IRQHandler                    0x080038fc   Section        0  rtc.o(i.RTC_WKUP_IRQHandler)
    i.RTC_WaitForSynchro                     0x08003924   Section        0  stm32f4xx_rtc.o(i.RTC_WaitForSynchro)
    i.RTC_WakeUpClockConfig                  0x08003984   Section        0  stm32f4xx_rtc.o(i.RTC_WakeUpClockConfig)
    i.RTC_WakeUpCmd                          0x080039b4   Section        0  stm32f4xx_rtc.o(i.RTC_WakeUpCmd)
    i.SetSysClock                            0x08003a2c   Section        0  system_stm32f4xx.o(i.SetSysClock)
    SetSysClock                              0x08003a2d   Thumb Code   220  system_stm32f4xx.o(i.SetSysClock)
    i.Smog_Config                            0x08003b18   Section        0  adc.o(i.Smog_Config)
    i.SysTick_Handler                        0x08003b94   Section        0  port.o(i.SysTick_Handler)
    i.SystemInit                             0x08003bc8   Section        0  system_stm32f4xx.o(i.SystemInit)
    i.TIM_ARRPreloadConfig                   0x08003c30   Section        0  stm32f4xx_tim.o(i.TIM_ARRPreloadConfig)
    i.TIM_Cmd                                0x08003c48   Section        0  stm32f4xx_tim.o(i.TIM_Cmd)
    i.TIM_CtrlPWMOutputs                     0x08003c60   Section        0  stm32f4xx_tim.o(i.TIM_CtrlPWMOutputs)
    i.TIM_OC1Init                            0x08003c80   Section        0  stm32f4xx_tim.o(i.TIM_OC1Init)
    i.TIM_TimeBaseInit                       0x08003cfc   Section        0  stm32f4xx_tim.o(i.TIM_TimeBaseInit)
    i.USART1_Config                          0x08003d80   Section        0  usart2.o(i.USART1_Config)
    i.USART1_IRQHandler                      0x08003e30   Section        0  usart2.o(i.USART1_IRQHandler)
    i.USART2_Config                          0x08003e58   Section        0  usart.o(i.USART2_Config)
    i.USART2_Handle                          0x08003f04   Section        0  usart.o(i.USART2_Handle)
    i.USART2_IRQHandler                      0x080040c0   Section        0  usart.o(i.USART2_IRQHandler)
    i.USART2_SendString                      0x08004134   Section        0  usart.o(i.USART2_SendString)
    i.USART3_Config                          0x08004160   Section        0  usart2.o(i.USART3_Config)
    i.USART3_IRQHandler                      0x08004210   Section        0  usart2.o(i.USART3_IRQHandler)
    i.USART_ClearFlag                        0x08004270   Section        0  stm32f4xx_usart.o(i.USART_ClearFlag)
    i.USART_ClearITPendingBit                0x08004282   Section        0  stm32f4xx_usart.o(i.USART_ClearITPendingBit)
    i.USART_Cmd                              0x080042a0   Section        0  stm32f4xx_usart.o(i.USART_Cmd)
    i.USART_GetFlagStatus                    0x080042b8   Section        0  stm32f4xx_usart.o(i.USART_GetFlagStatus)
    i.USART_GetITStatus                      0x080042d2   Section        0  stm32f4xx_usart.o(i.USART_GetITStatus)
    i.USART_ITConfig                         0x08004326   Section        0  stm32f4xx_usart.o(i.USART_ITConfig)
    i.USART_Init                             0x08004370   Section        0  stm32f4xx_usart.o(i.USART_Init)
    i.USART_ReceiveData                      0x08004444   Section        0  stm32f4xx_usart.o(i.USART_ReceiveData)
    i.USART_SendData                         0x0800444e   Section        0  stm32f4xx_usart.o(i.USART_SendData)
    i.UsageFault_Handler                     0x08004456   Section        0  stm32f4xx_it.o(i.UsageFault_Handler)
    i.Usart_SendByte                         0x0800445a   Section        0  usart2.o(i.Usart_SendByte)
    i.Usart_SendBytes                        0x08004478   Section        0  usart2.o(i.Usart_SendBytes)
    i.Usart_SendString                       0x080044b2   Section        0  usart2.o(i.Usart_SendString)
    i.WS2812_Init                            0x080044e4   Section        0  ws2812.o(i.WS2812_Init)
    i.WeatherHandle                          0x08004520   Section        0  nettime.o(i.WeatherHandle)
    i.__0printf                              0x080045f0   Section        0  printfa.o(i.__0printf)
    i.__0sprintf                             0x08004610   Section        0  printfa.o(i.__0sprintf)
    i.__ARM_fpclassify                       0x08004638   Section        0  fpclassify.o(i.__ARM_fpclassify)
    i.__aeabi_errno_addr                     0x08004668   Section        0  errno.o(i.__aeabi_errno_addr)
    i.__free$realloc                         0x08004670   Section        0  mallocr.o(i.__free$realloc)
    i.__hardfp_pow                           0x080046d0   Section        0  pow.o(i.__hardfp_pow)
    i.__kernel_poly                          0x08005320   Section        0  poly.o(i.__kernel_poly)
    i.__malloc$realloc                       0x08005418   Section        0  mallocr.o(i.__malloc$realloc)
    i.__mathlib_dbl_divzero                  0x08005468   Section        0  dunder.o(i.__mathlib_dbl_divzero)
    i.__mathlib_dbl_infnan2                  0x08005498   Section        0  dunder.o(i.__mathlib_dbl_infnan2)
    i.__mathlib_dbl_invalid                  0x080054b0   Section        0  dunder.o(i.__mathlib_dbl_invalid)
    i.__mathlib_dbl_overflow                 0x080054d0   Section        0  dunder.o(i.__mathlib_dbl_overflow)
    i.__mathlib_dbl_underflow                0x080054f0   Section        0  dunder.o(i.__mathlib_dbl_underflow)
    i.__scatterload_copy                     0x08005510   Section       14  handlers.o(i.__scatterload_copy)
    i.__scatterload_null                     0x0800551e   Section        2  handlers.o(i.__scatterload_null)
    i.__scatterload_zeroinit                 0x08005520   Section       14  handlers.o(i.__scatterload_zeroinit)
    i.__set_errno                            0x08005530   Section        0  errno.o(i.__set_errno)
    i._fp_digits                             0x0800553c   Section        0  printfa.o(i._fp_digits)
    _fp_digits                               0x0800553d   Thumb Code   366  printfa.o(i._fp_digits)
    i._is_digit                              0x080056c0   Section        0  scanf_fp.o(i._is_digit)
    i._printf_core                           0x080056d0   Section        0  printfa.o(i._printf_core)
    _printf_core                             0x080056d1   Thumb Code  1744  printfa.o(i._printf_core)
    i._printf_post_padding                   0x08005dac   Section        0  printfa.o(i._printf_post_padding)
    _printf_post_padding                     0x08005dad   Thumb Code    36  printfa.o(i._printf_post_padding)
    i._printf_pre_padding                    0x08005dd0   Section        0  printfa.o(i._printf_pre_padding)
    _printf_pre_padding                      0x08005dd1   Thumb Code    46  printfa.o(i._printf_pre_padding)
    i._sputc                                 0x08005dfe   Section        0  printfa.o(i._sputc)
    _sputc                                   0x08005dff   Thumb Code    10  printfa.o(i._sputc)
    i.buffer_skip_whitespace                 0x08005e08   Section        0  cjson.o(i.buffer_skip_whitespace)
    buffer_skip_whitespace                   0x08005e09   Thumb Code    58  cjson.o(i.buffer_skip_whitespace)
    i.cJSON_Delete                           0x08005e44   Section        0  cjson.o(i.cJSON_Delete)
    i.cJSON_GetArrayItem                     0x08005e9c   Section        0  cjson.o(i.cJSON_GetArrayItem)
    i.cJSON_GetErrorPtr                      0x08005eb4   Section        0  cjson.o(i.cJSON_GetErrorPtr)
    i.cJSON_GetObjectItem                    0x08005ec4   Section        0  cjson.o(i.cJSON_GetObjectItem)
    i.cJSON_New_Item                         0x08005ed6   Section        0  cjson.o(i.cJSON_New_Item)
    cJSON_New_Item                           0x08005ed7   Thumb Code    28  cjson.o(i.cJSON_New_Item)
    i.cJSON_Parse                            0x08005ef2   Section        0  cjson.o(i.cJSON_Parse)
    i.cJSON_ParseWithOpts                    0x08005f04   Section        0  cjson.o(i.cJSON_ParseWithOpts)
    i.cJSON_Print                            0x08005fd4   Section        0  cjson.o(i.cJSON_Print)
    i.calculating_time                       0x08005fe8   Section        0  nettime.o(i.calculating_time)
    i.case_insensitive_strcmp                0x08006100   Section        0  cjson.o(i.case_insensitive_strcmp)
    case_insensitive_strcmp                  0x08006101   Thumb Code    72  cjson.o(i.case_insensitive_strcmp)
    i.delay_ms                               0x08006148   Section        0  delay.o(i.delay_ms)
    i.delay_us                               0x08006184   Section        0  delay.o(i.delay_us)
    i.ensure                                 0x080061ba   Section        0  cjson.o(i.ensure)
    ensure                                   0x080061bb   Thumb Code   186  cjson.o(i.ensure)
    i.esp8266_check                          0x08006274   Section        0  esp8266.o(i.esp8266_check)
    i.esp8266_check_connection_status        0x080062a0   Section        0  esp8266.o(i.esp8266_check_connection_status)
    i.esp8266_connect_ap                     0x080062ec   Section        0  esp8266.o(i.esp8266_connect_ap)
    i.esp8266_connect_server                 0x080063bc   Section        0  esp8266.o(i.esp8266_connect_server)
    i.esp8266_disconnect_server              0x0800646c   Section        0  esp8266.o(i.esp8266_disconnect_server)
    i.esp8266_enable_echo                    0x080064a0   Section        0  esp8266.o(i.esp8266_enable_echo)
    i.esp8266_entry_transparent_transmission 0x080064e0   Section        0  esp8266.o(i.esp8266_entry_transparent_transmission)
    i.esp8266_exit_transparent_transmission  0x08006564   Section        0  esp8266.o(i.esp8266_exit_transparent_transmission)
    i.esp8266_find_str_in_rx_packet          0x08006584   Section        0  esp8266.o(i.esp8266_find_str_in_rx_packet)
    i.esp8266_reset                          0x080065bc   Section        0  esp8266.o(i.esp8266_reset)
    i.esp8266_send_at                        0x080065ec   Section        0  esp8266.o(i.esp8266_send_at)
    i.esp8266_send_bytes                     0x08006618   Section        0  esp8266.o(i.esp8266_send_bytes)
    i.esp8266_send_str                       0x08006630   Section        0  esp8266.o(i.esp8266_send_str)
    i.fabs                                   0x08006644   Section        0  fabs.o(i.fabs)
    i.fputc                                  0x0800665c   Section        0  usart2.o(i.fputc)
    i.get_array_item                         0x08006680   Section        0  cjson.o(i.get_array_item)
    get_array_item                           0x08006681   Thumb Code    30  cjson.o(i.get_array_item)
    i.get_decimal_point                      0x0800669e   Section        0  cjson.o(i.get_decimal_point)
    get_decimal_point                        0x0800669f   Thumb Code    14  cjson.o(i.get_decimal_point)
    i.get_object_item                        0x080066ac   Section        0  cjson.o(i.get_object_item)
    get_object_item                          0x080066ad   Thumb Code    68  cjson.o(i.get_object_item)
    i.internal_alloc                         0x080066f0   Section        0  mallocr.o(i.internal_alloc)
    internal_alloc                           0x080066f1   Thumb Code    76  mallocr.o(i.internal_alloc)
    i.main                                   0x08006740   Section        0  main.o(i.main)
    i.mqtt_cjson_parse                       0x08006834   Section        0  mqtt.o(i.mqtt_cjson_parse)
    i.mqtt_connect                           0x08006964   Section        0  mqtt.o(i.mqtt_connect)
    i.mqtt_msg_handle                        0x08006cd0   Section        0  mqtt.o(i.mqtt_msg_handle)
    i.mqtt_publish_data                      0x08006d28   Section        0  mqtt.o(i.mqtt_publish_data)
    i.mqtt_report_devices_status             0x08006e3c   Section        0  mqtt.o(i.mqtt_report_devices_status)
    i.mqtt_report_devices_status2            0x08006ec8   Section        0  mqtt.o(i.mqtt_report_devices_status2)
    i.mqtt_report_devices_status3            0x08006f4c   Section        0  mqtt.o(i.mqtt_report_devices_status3)
    i.mqtt_send_bytes                        0x08006fd0   Section        0  mqtt.o(i.mqtt_send_bytes)
    i.mqtt_send_heart                        0x08006fe0   Section        0  mqtt.o(i.mqtt_send_heart)
    i.mqtt_subscribe_topic                   0x08007098   Section        0  mqtt.o(i.mqtt_subscribe_topic)
    i.parse_array                            0x080072bc   Section        0  cjson.o(i.parse_array)
    parse_array                              0x080072bd   Thumb Code   244  cjson.o(i.parse_array)
    i.parse_hex4                             0x080073b0   Section        0  cjson.o(i.parse_hex4)
    parse_hex4                               0x080073b1   Thumb Code    90  cjson.o(i.parse_hex4)
    i.parse_number                           0x0800740c   Section        0  cjson.o(i.parse_number)
    parse_number                             0x0800740d   Thumb Code   316  cjson.o(i.parse_number)
    i.parse_object                           0x08007560   Section        0  cjson.o(i.parse_object)
    parse_object                             0x08007561   Thumb Code   314  cjson.o(i.parse_object)
    i.parse_string                           0x0800769a   Section        0  cjson.o(i.parse_string)
    parse_string                             0x0800769b   Thumb Code   396  cjson.o(i.parse_string)
    i.parse_value                            0x08007828   Section        0  cjson.o(i.parse_value)
    parse_value                              0x08007829   Thumb Code   290  cjson.o(i.parse_value)
    i.print                                  0x08007964   Section        0  cjson.o(i.print)
    print                                    0x08007965   Thumb Code   174  cjson.o(i.print)
    i.print_array                            0x08007a12   Section        0  cjson.o(i.print_array)
    print_array                              0x08007a13   Thumb Code   178  cjson.o(i.print_array)
    i.print_number                           0x08007ac4   Section        0  cjson.o(i.print_number)
    print_number                             0x08007ac5   Thumb Code   232  cjson.o(i.print_number)
    i.print_object                           0x08007bd0   Section        0  cjson.o(i.print_object)
    print_object                             0x08007bd1   Thumb Code   372  cjson.o(i.print_object)
    i.print_string                           0x08007d44   Section        0  cjson.o(i.print_string)
    print_string                             0x08007d45   Thumb Code    16  cjson.o(i.print_string)
    i.print_string_ptr                       0x08007d54   Section        0  cjson.o(i.print_string_ptr)
    print_string_ptr                         0x08007d55   Thumb Code   360  cjson.o(i.print_string_ptr)
    i.print_value                            0x08007ec8   Section        0  cjson.o(i.print_value)
    print_value                              0x08007ec9   Thumb Code   246  cjson.o(i.print_value)
    i.prvAddCurrentTaskToDelayedList         0x08007fd8   Section        0  tasks.o(i.prvAddCurrentTaskToDelayedList)
    prvAddCurrentTaskToDelayedList           0x08007fd9   Thumb Code   124  tasks.o(i.prvAddCurrentTaskToDelayedList)
    i.prvAddNewTaskToReadyList               0x08008070   Section        0  tasks.o(i.prvAddNewTaskToReadyList)
    prvAddNewTaskToReadyList                 0x08008071   Thumb Code   156  tasks.o(i.prvAddNewTaskToReadyList)
    i.prvCheckTasksWaitingTermination        0x08008128   Section        0  tasks.o(i.prvCheckTasksWaitingTermination)
    prvCheckTasksWaitingTermination          0x08008129   Thumb Code    86  tasks.o(i.prvCheckTasksWaitingTermination)
    i.prvCopyDataFromQueue                   0x0800818c   Section        0  queue.o(i.prvCopyDataFromQueue)
    prvCopyDataFromQueue                     0x0800818d   Thumb Code    42  queue.o(i.prvCopyDataFromQueue)
    i.prvCopyDataToQueue                     0x080081b6   Section        0  queue.o(i.prvCopyDataToQueue)
    prvCopyDataToQueue                       0x080081b7   Thumb Code   124  queue.o(i.prvCopyDataToQueue)
    i.prvDeleteTCB                           0x08008232   Section        0  tasks.o(i.prvDeleteTCB)
    prvDeleteTCB                             0x08008233   Thumb Code    18  tasks.o(i.prvDeleteTCB)
    i.prvHeapInit                            0x08008244   Section        0  heap_4.o(i.prvHeapInit)
    prvHeapInit                              0x08008245   Thumb Code    98  heap_4.o(i.prvHeapInit)
    i.prvIdleTask                            0x080082c0   Section        0  tasks.o(i.prvIdleTask)
    prvIdleTask                              0x080082c1   Thumb Code    32  tasks.o(i.prvIdleTask)
    i.prvInitialiseMutex                     0x080082e8   Section        0  queue.o(i.prvInitialiseMutex)
    prvInitialiseMutex                       0x080082e9   Thumb Code    28  queue.o(i.prvInitialiseMutex)
    i.prvInitialiseNewQueue                  0x08008304   Section        0  queue.o(i.prvInitialiseNewQueue)
    prvInitialiseNewQueue                    0x08008305   Thumb Code    42  queue.o(i.prvInitialiseNewQueue)
    i.prvInitialiseNewTask                   0x0800832e   Section        0  tasks.o(i.prvInitialiseNewTask)
    prvInitialiseNewTask                     0x0800832f   Thumb Code   180  tasks.o(i.prvInitialiseNewTask)
    i.prvInitialiseTaskLists                 0x080083e4   Section        0  tasks.o(i.prvInitialiseTaskLists)
    prvInitialiseTaskLists                   0x080083e5   Thumb Code    70  tasks.o(i.prvInitialiseTaskLists)
    i.prvInsertBlockIntoFreeList             0x0800844c   Section        0  heap_4.o(i.prvInsertBlockIntoFreeList)
    prvInsertBlockIntoFreeList               0x0800844d   Thumb Code    96  heap_4.o(i.prvInsertBlockIntoFreeList)
    i.prvIsQueueEmpty                        0x080084b4   Section        0  queue.o(i.prvIsQueueEmpty)
    prvIsQueueEmpty                          0x080084b5   Thumb Code    26  queue.o(i.prvIsQueueEmpty)
    i.prvIsQueueFull                         0x080084ce   Section        0  queue.o(i.prvIsQueueFull)
    prvIsQueueFull                           0x080084cf   Thumb Code    30  queue.o(i.prvIsQueueFull)
    i.prvResetNextTaskUnblockTime            0x080084ec   Section        0  tasks.o(i.prvResetNextTaskUnblockTime)
    prvResetNextTaskUnblockTime              0x080084ed   Thumb Code    42  tasks.o(i.prvResetNextTaskUnblockTime)
    i.prvTaskExitError                       0x08008520   Section        0  port.o(i.prvTaskExitError)
    prvTaskExitError                         0x08008521   Thumb Code    60  port.o(i.prvTaskExitError)
    i.prvUnlockQueue                         0x08008560   Section        0  queue.o(i.prvUnlockQueue)
    prvUnlockQueue                           0x08008561   Thumb Code   126  queue.o(i.prvUnlockQueue)
    i.pvPortMalloc                           0x080085e0   Section        0  heap_4.o(i.pvPortMalloc)
    i.pvTaskIncrementMutexHeldCount          0x0800871c   Section        0  tasks.o(i.pvTaskIncrementMutexHeldCount)
    i.pxPortInitialiseStack                  0x0800873c   Section        0  port.o(i.pxPortInitialiseStack)
    i.realloc                                0x08008768   Section        0  mallocr.o(i.realloc)
    i.sqrt                                   0x080087d4   Section        0  sqrt.o(i.sqrt)
    i.strtod                                 0x08008848   Section        0  strtod.o(i.strtod)
    i.task1_func                             0x08008878   Section        0  main.o(i.task1_func)
    i.task2_func                             0x08008c60   Section        0  main.o(i.task2_func)
    i.task3_func                             0x08008cac   Section        0  main.o(i.task3_func)
    i.update_offset                          0x08008d04   Section        0  cjson.o(i.update_offset)
    update_offset                            0x08008d05   Thumb Code    36  cjson.o(i.update_offset)
    i.utf16_literal_to_utf8                  0x08008d28   Section        0  cjson.o(i.utf16_literal_to_utf8)
    utf16_literal_to_utf8                    0x08008d29   Thumb Code   300  cjson.o(i.utf16_literal_to_utf8)
    i.uxListRemove                           0x08008e54   Section        0  list.o(i.uxListRemove)
    i.vListInitialise                        0x08008e7c   Section        0  list.o(i.vListInitialise)
    i.vListInitialiseItem                    0x08008e96   Section        0  list.o(i.vListInitialiseItem)
    i.vListInsert                            0x08008e9c   Section        0  list.o(i.vListInsert)
    i.vListInsertEnd                         0x08008ed0   Section        0  list.o(i.vListInsertEnd)
    i.vPortEnterCritical                     0x08008ee8   Section        0  port.o(i.vPortEnterCritical)
    i.vPortExitCritical                      0x08008f3c   Section        0  port.o(i.vPortExitCritical)
    i.vPortFree                              0x08008f78   Section        0  heap_4.o(i.vPortFree)
    i.vPortSetupTimerInterrupt               0x0800900c   Section        0  port.o(i.vPortSetupTimerInterrupt)
    i.vTaskDelay                             0x0800902c   Section        0  tasks.o(i.vTaskDelay)
    i.vTaskMissedYield                       0x08009088   Section        0  tasks.o(i.vTaskMissedYield)
    i.vTaskPlaceOnEventList                  0x08009094   Section        0  tasks.o(i.vTaskPlaceOnEventList)
    i.vTaskPriorityInherit                   0x080090cc   Section        0  tasks.o(i.vTaskPriorityInherit)
    i.vTaskSetTimeOutState                   0x0800917c   Section        0  tasks.o(i.vTaskSetTimeOutState)
    i.vTaskStartScheduler                    0x080091ac   Section        0  tasks.o(i.vTaskStartScheduler)
    i.vTaskSuspendAll                        0x08009234   Section        0  tasks.o(i.vTaskSuspendAll)
    i.vTaskSwitchContext                     0x08009244   Section        0  tasks.o(i.vTaskSwitchContext)
    i.xPortStartScheduler                    0x080092d0   Section        0  port.o(i.xPortStartScheduler)
    i.xQueueCreateMutex                      0x0800940c   Section        0  queue.o(i.xQueueCreateMutex)
    i.xQueueGenericCreate                    0x0800942e   Section        0  queue.o(i.xQueueGenericCreate)
    i.xQueueGenericReceive                   0x08009488   Section        0  queue.o(i.xQueueGenericReceive)
    i.xQueueGenericReset                     0x08009624   Section        0  queue.o(i.xQueueGenericReset)
    i.xQueueGenericSend                      0x080096bc   Section        0  queue.o(i.xQueueGenericSend)
    i.xTaskCheckForTimeOut                   0x0800983c   Section        0  tasks.o(i.xTaskCheckForTimeOut)
    i.xTaskCreate                            0x080098c8   Section        0  tasks.o(i.xTaskCreate)
    i.xTaskIncrementTick                     0x08009928   Section        0  tasks.o(i.xTaskIncrementTick)
    i.xTaskPriorityDisinherit                0x08009a70   Section        0  tasks.o(i.xTaskPriorityDisinherit)
    i.xTaskRemoveFromEventList               0x08009b38   Section        0  tasks.o(i.xTaskRemoveFromEventList)
    i.xTaskResumeAll                         0x08009bd0   Section        0  tasks.o(i.xTaskResumeAll)
    .constdata                               0x08009cd4   Section     1848  oled.o(.constdata)
    .constdata                               0x0800a410   Section      136  pow.o(.constdata)
    bp                                       0x0800a410   Data          16  pow.o(.constdata)
    dp_h                                     0x0800a420   Data          16  pow.o(.constdata)
    dp_l                                     0x0800a430   Data          16  pow.o(.constdata)
    L                                        0x0800a440   Data          48  pow.o(.constdata)
    P                                        0x0800a470   Data          40  pow.o(.constdata)
    .constdata                               0x0800a498   Section        8  qnan.o(.constdata)
    .constdata                               0x0800a4a0   Section       56  ilconv.o(.constdata)
    .constdata                               0x0800a4d8   Section      129  ctype_o.o(.constdata)
    .constdata                               0x0800a55c   Section        4  ctype_o.o(.constdata)
    table                                    0x0800a55c   Data           4  ctype_o.o(.constdata)
    .conststring                             0x0800a560   Section      586  mqtt.o(.conststring)
    .conststring                             0x0800a7ac   Section      213  nettime.o(.conststring)
    .conststring                             0x0800a884   Section        5  ilconv.o(.conststring)
    .data                                    0x20000000   Section       16  stm32f4xx_rcc.o(.data)
    APBAHBPrescTable                         0x20000000   Data          16  stm32f4xx_rcc.o(.data)
    .data                                    0x20000010   Section        5  adc.o(.data)
    .data                                    0x20000018   Section       20  cjson.o(.data)
    global_error                             0x20000018   Data           8  cjson.o(.data)
    global_hooks                             0x20000020   Data          12  cjson.o(.data)
    .data                                    0x2000002c   Section        4  esp8266.o(.data)
    .data                                    0x20000030   Section        8  motor.o(.data)
    .data                                    0x20000038   Section        4  mqtt.o(.data)
    .data                                    0x2000003c   Section       12  rtc.o(.data)
    .data                                    0x20000048   Section        5  usart.o(.data)
    .data                                    0x20000050   Section       20  usart2.o(.data)
    .data                                    0x20000064   Section        6  nettime.o(.data)
    .data                                    0x2000006c   Section       20  system_stm32f4xx.o(.data)
    .data                                    0x20000080   Section     1104  main.o(.data)
    .data                                    0x200004d0   Section       60  tasks.o(.data)
    pxDelayedTaskList                        0x200004d4   Data           4  tasks.o(.data)
    pxOverflowDelayedTaskList                0x200004d8   Data           4  tasks.o(.data)
    uxDeletedTasksWaitingCleanUp             0x200004dc   Data           4  tasks.o(.data)
    uxCurrentNumberOfTasks                   0x200004e0   Data           4  tasks.o(.data)
    xTickCount                               0x200004e4   Data           4  tasks.o(.data)
    uxTopReadyPriority                       0x200004e8   Data           4  tasks.o(.data)
    xSchedulerRunning                        0x200004ec   Data           4  tasks.o(.data)
    uxPendedTicks                            0x200004f0   Data           4  tasks.o(.data)
    xYieldPending                            0x200004f4   Data           4  tasks.o(.data)
    xNumOfOverflows                          0x200004f8   Data           4  tasks.o(.data)
    uxTaskNumber                             0x200004fc   Data           4  tasks.o(.data)
    xNextTaskUnblockTime                     0x20000500   Data           4  tasks.o(.data)
    xIdleTaskHandle                          0x20000504   Data           4  tasks.o(.data)
    uxSchedulerSuspended                     0x20000508   Data           4  tasks.o(.data)
    .data                                    0x2000050c   Section       24  heap_4.o(.data)
    xStart                                   0x2000050c   Data           8  heap_4.o(.data)
    pxEnd                                    0x20000514   Data           4  heap_4.o(.data)
    xFreeBytesRemaining                      0x20000518   Data           4  heap_4.o(.data)
    xMinimumEverFreeBytesRemaining           0x2000051c   Data           4  heap_4.o(.data)
    xBlockAllocatedBit                       0x20000520   Data           4  heap_4.o(.data)
    .data                                    0x20000524   Section       12  port.o(.data)
    uxCriticalNesting                        0x20000524   Data           4  port.o(.data)
    ucMaxSysCallPriority                     0x20000528   Data           1  port.o(.data)
    ulMaxPRIGROUPValue                       0x2000052c   Data           4  port.o(.data)
    .data                                    0x20000530   Section        4  mvars.o(.data)
    .data                                    0x20000534   Section        4  mvars.o(.data)
    .data                                    0x20000538   Section        4  errno.o(.data)
    _errno                                   0x20000538   Data           4  errno.o(.data)
    .bss                                     0x2000053c   Section       32  motor.o(.bss)
    .bss                                     0x2000055c   Section      526  mqtt.o(.bss)
    .bss                                     0x2000076a   Section      256  usart.o(.bss)
    .bss                                     0x2000086a   Section     1280  usart2.o(.bss)
    .bss                                     0x20000d6c   Section      200  tasks.o(.bss)
    pxReadyTasksLists                        0x20000d6c   Data         100  tasks.o(.bss)
    xDelayedTaskList1                        0x20000dd0   Data          20  tasks.o(.bss)
    xDelayedTaskList2                        0x20000de4   Data          20  tasks.o(.bss)
    xPendingReadyList                        0x20000df8   Data          20  tasks.o(.bss)
    xTasksWaitingTermination                 0x20000e0c   Data          20  tasks.o(.bss)
    xSuspendedTaskList                       0x20000e20   Data          20  tasks.o(.bss)
    .bss                                     0x20000e34   Section    76800  heap_4.o(.bss)
    ucHeap                                   0x20000e34   Data       76800  heap_4.o(.bss)
    HEAP                                     0x20013a38   Section     2048  startup_stm32f40_41xxx.o(HEAP)
    STACK                                    0x20014238   Section     1024  startup_stm32f40_41xxx.o(STACK)

    Global Symbols

    Symbol Name                              Value     Ov Type        Size  Object(Section)

    BuildAttributes$$THM_ISAv4$E$P$D$K$B$S$7EM$VFPi3$EXTD16$VFPS$VFMA$PE$A:L22UL41UL21$X:L11$S22US41US21$IEEE1$IW$USESV6$~STKCKD$USESV7$~SHL$OTIME$ROPI$IEEEX$EBA8$MICROLIB$REQ8$PRES8$EABIv2 0x00000000   Number         0  anon$$obj.o ABSOLUTE
    __ARM_use_no_argv                        0x00000000   Number         0  main.o ABSOLUTE
    __use_no_errno                           0x00000000   Number         0  useno.o ABSOLUTE
    __use_no_exception_handling              0x00000000   Number         0  useno.o ABSOLUTE
    __use_no_fp                              0x00000000   Number         0  useno.o ABSOLUTE
    __use_no_heap                            0x00000000   Number         0  useno.o ABSOLUTE
    __use_no_heap_region                     0x00000000   Number         0  useno.o ABSOLUTE
    __use_no_semihosting                     0x00000000   Number         0  useno.o ABSOLUTE
    __use_no_semihosting_swi                 0x00000000   Number         0  useno.o ABSOLUTE
    __use_no_signal_handling                 0x00000000   Number         0  useno.o ABSOLUTE
    _printf_a                                0x00000000   Number         0  stubs.o ABSOLUTE
    _printf_c                                0x00000000   Number         0  stubs.o ABSOLUTE
    _printf_charcount                        0x00000000   Number         0  stubs.o ABSOLUTE
    _printf_d                                0x00000000   Number         0  stubs.o ABSOLUTE
    _printf_e                                0x00000000   Number         0  stubs.o ABSOLUTE
    _printf_f                                0x00000000   Number         0  stubs.o ABSOLUTE
    _printf_flags                            0x00000000   Number         0  stubs.o ABSOLUTE
    _printf_fp_dec                           0x00000000   Number         0  stubs.o ABSOLUTE
    _printf_fp_hex                           0x00000000   Number         0  stubs.o ABSOLUTE
    _printf_g                                0x00000000   Number         0  stubs.o ABSOLUTE
    _printf_i                                0x00000000   Number         0  stubs.o ABSOLUTE
    _printf_int_dec                          0x00000000   Number         0  stubs.o ABSOLUTE
    _printf_l                                0x00000000   Number         0  stubs.o ABSOLUTE
    _printf_lc                               0x00000000   Number         0  stubs.o ABSOLUTE
    _printf_ll                               0x00000000   Number         0  stubs.o ABSOLUTE
    _printf_lld                              0x00000000   Number         0  stubs.o ABSOLUTE
    _printf_lli                              0x00000000   Number         0  stubs.o ABSOLUTE
    _printf_llo                              0x00000000   Number         0  stubs.o ABSOLUTE
    _printf_llu                              0x00000000   Number         0  stubs.o ABSOLUTE
    _printf_llx                              0x00000000   Number         0  stubs.o ABSOLUTE
    _printf_longlong_dec                     0x00000000   Number         0  stubs.o ABSOLUTE
    _printf_longlong_hex                     0x00000000   Number         0  stubs.o ABSOLUTE
    _printf_longlong_oct                     0x00000000   Number         0  stubs.o ABSOLUTE
    _printf_ls                               0x00000000   Number         0  stubs.o ABSOLUTE
    _printf_mbtowc                           0x00000000   Number         0  stubs.o ABSOLUTE
    _printf_n                                0x00000000   Number         0  stubs.o ABSOLUTE
    _printf_o                                0x00000000   Number         0  stubs.o ABSOLUTE
    _printf_p                                0x00000000   Number         0  stubs.o ABSOLUTE
    _printf_percent                          0x00000000   Number         0  stubs.o ABSOLUTE
    _printf_pre_padding                      0x00000000   Number         0  stubs.o ABSOLUTE
    _printf_return_value                     0x00000000   Number         0  stubs.o ABSOLUTE
    _printf_s                                0x00000000   Number         0  stubs.o ABSOLUTE
    _printf_sizespec                         0x00000000   Number         0  stubs.o ABSOLUTE
    _printf_str                              0x00000000   Number         0  stubs.o ABSOLUTE
    _printf_truncate_signed                  0x00000000   Number         0  stubs.o ABSOLUTE
    _printf_truncate_unsigned                0x00000000   Number         0  stubs.o ABSOLUTE
    _printf_u                                0x00000000   Number         0  stubs.o ABSOLUTE
    _printf_wc                               0x00000000   Number         0  stubs.o ABSOLUTE
    _printf_wctomb                           0x00000000   Number         0  stubs.o ABSOLUTE
    _printf_widthprec                        0x00000000   Number         0  stubs.o ABSOLUTE
    _printf_x                                0x00000000   Number         0  stubs.o ABSOLUTE
    __cpp_initialize__aeabi_                  - Undefined Weak Reference
    __cxa_finalize                            - Undefined Weak Reference
    _clock_init                               - Undefined Weak Reference
    _microlib_exit                            - Undefined Weak Reference
    __Vectors_Size                           0x00000188   Number         0  startup_stm32f40_41xxx.o ABSOLUTE
    __Vectors                                0x08000000   Data           4  startup_stm32f40_41xxx.o(RESET)
    __Vectors_End                            0x08000188   Data           0  startup_stm32f40_41xxx.o(RESET)
    __main                                   0x08000189   Thumb Code     0  entry.o(.ARM.Collect$$$$00000000)
    _main_stk                                0x08000189   Thumb Code     0  entry2.o(.ARM.Collect$$$$00000001)
    _main_scatterload                        0x0800018d   Thumb Code     0  entry5.o(.ARM.Collect$$$$00000004)
    __main_after_scatterload                 0x08000191   Thumb Code     0  entry5.o(.ARM.Collect$$$$00000004)
    _main_clock                              0x08000191   Thumb Code     0  entry7b.o(.ARM.Collect$$$$00000008)
    _main_cpp_init                           0x08000191   Thumb Code     0  entry8b.o(.ARM.Collect$$$$0000000A)
    _main_init                               0x08000191   Thumb Code     0  entry9a.o(.ARM.Collect$$$$0000000B)
    __rt_final_cpp                           0x08000199   Thumb Code     0  entry10a.o(.ARM.Collect$$$$0000000D)
    __rt_final_exit                          0x08000199   Thumb Code     0  entry11a.o(.ARM.Collect$$$$0000000F)
    SVC_Handler                              0x0800019d   Thumb Code    28  port.o(.emb_text)
    __asm___6_port_c_39a90d8d__prvStartFirstTask 0x080001bd   Thumb Code    28  port.o(.emb_text)
    __asm___6_port_c_39a90d8d__prvEnableVFP  0x080001dd   Thumb Code    16  port.o(.emb_text)
    PendSV_Handler                           0x080001f1   Thumb Code    88  port.o(.emb_text)
    vPortGetIPSR                             0x0800024d   Thumb Code     6  port.o(.emb_text)
    Reset_Handler                            0x08000255   Thumb Code     8  startup_stm32f40_41xxx.o(.text)
    ADC_IRQHandler                           0x0800026f   Thumb Code     0  startup_stm32f40_41xxx.o(.text)
    CAN1_RX0_IRQHandler                      0x0800026f   Thumb Code     0  startup_stm32f40_41xxx.o(.text)
    CAN1_RX1_IRQHandler                      0x0800026f   Thumb Code     0  startup_stm32f40_41xxx.o(.text)
    CAN1_SCE_IRQHandler                      0x0800026f   Thumb Code     0  startup_stm32f40_41xxx.o(.text)
    CAN1_TX_IRQHandler                       0x0800026f   Thumb Code     0  startup_stm32f40_41xxx.o(.text)
    CAN2_RX0_IRQHandler                      0x0800026f   Thumb Code     0  startup_stm32f40_41xxx.o(.text)
    CAN2_RX1_IRQHandler                      0x0800026f   Thumb Code     0  startup_stm32f40_41xxx.o(.text)
    CAN2_SCE_IRQHandler                      0x0800026f   Thumb Code     0  startup_stm32f40_41xxx.o(.text)
    CAN2_TX_IRQHandler                       0x0800026f   Thumb Code     0  startup_stm32f40_41xxx.o(.text)
    CRYP_IRQHandler                          0x0800026f   Thumb Code     0  startup_stm32f40_41xxx.o(.text)
    DCMI_IRQHandler                          0x0800026f   Thumb Code     0  startup_stm32f40_41xxx.o(.text)
    DMA1_Stream0_IRQHandler                  0x0800026f   Thumb Code     0  startup_stm32f40_41xxx.o(.text)
    DMA1_Stream1_IRQHandler                  0x0800026f   Thumb Code     0  startup_stm32f40_41xxx.o(.text)
    DMA1_Stream2_IRQHandler                  0x0800026f   Thumb Code     0  startup_stm32f40_41xxx.o(.text)
    DMA1_Stream3_IRQHandler                  0x0800026f   Thumb Code     0  startup_stm32f40_41xxx.o(.text)
    DMA1_Stream4_IRQHandler                  0x0800026f   Thumb Code     0  startup_stm32f40_41xxx.o(.text)
    DMA1_Stream5_IRQHandler                  0x0800026f   Thumb Code     0  startup_stm32f40_41xxx.o(.text)
    DMA1_Stream6_IRQHandler                  0x0800026f   Thumb Code     0  startup_stm32f40_41xxx.o(.text)
    DMA1_Stream7_IRQHandler                  0x0800026f   Thumb Code     0  startup_stm32f40_41xxx.o(.text)
    DMA2_Stream0_IRQHandler                  0x0800026f   Thumb Code     0  startup_stm32f40_41xxx.o(.text)
    DMA2_Stream1_IRQHandler                  0x0800026f   Thumb Code     0  startup_stm32f40_41xxx.o(.text)
    DMA2_Stream2_IRQHandler                  0x0800026f   Thumb Code     0  startup_stm32f40_41xxx.o(.text)
    DMA2_Stream3_IRQHandler                  0x0800026f   Thumb Code     0  startup_stm32f40_41xxx.o(.text)
    DMA2_Stream4_IRQHandler                  0x0800026f   Thumb Code     0  startup_stm32f40_41xxx.o(.text)
    DMA2_Stream5_IRQHandler                  0x0800026f   Thumb Code     0  startup_stm32f40_41xxx.o(.text)
    DMA2_Stream6_IRQHandler                  0x0800026f   Thumb Code     0  startup_stm32f40_41xxx.o(.text)
    DMA2_Stream7_IRQHandler                  0x0800026f   Thumb Code     0  startup_stm32f40_41xxx.o(.text)
    ETH_IRQHandler                           0x0800026f   Thumb Code     0  startup_stm32f40_41xxx.o(.text)
    ETH_WKUP_IRQHandler                      0x0800026f   Thumb Code     0  startup_stm32f40_41xxx.o(.text)
    EXTI0_IRQHandler                         0x0800026f   Thumb Code     0  startup_stm32f40_41xxx.o(.text)
    EXTI15_10_IRQHandler                     0x0800026f   Thumb Code     0  startup_stm32f40_41xxx.o(.text)
    EXTI1_IRQHandler                         0x0800026f   Thumb Code     0  startup_stm32f40_41xxx.o(.text)
    EXTI2_IRQHandler                         0x0800026f   Thumb Code     0  startup_stm32f40_41xxx.o(.text)
    EXTI3_IRQHandler                         0x0800026f   Thumb Code     0  startup_stm32f40_41xxx.o(.text)
    EXTI4_IRQHandler                         0x0800026f   Thumb Code     0  startup_stm32f40_41xxx.o(.text)
    EXTI9_5_IRQHandler                       0x0800026f   Thumb Code     0  startup_stm32f40_41xxx.o(.text)
    FLASH_IRQHandler                         0x0800026f   Thumb Code     0  startup_stm32f40_41xxx.o(.text)
    FPU_IRQHandler                           0x0800026f   Thumb Code     0  startup_stm32f40_41xxx.o(.text)
    FSMC_IRQHandler                          0x0800026f   Thumb Code     0  startup_stm32f40_41xxx.o(.text)
    HASH_RNG_IRQHandler                      0x0800026f   Thumb Code     0  startup_stm32f40_41xxx.o(.text)
    I2C1_ER_IRQHandler                       0x0800026f   Thumb Code     0  startup_stm32f40_41xxx.o(.text)
    I2C1_EV_IRQHandler                       0x0800026f   Thumb Code     0  startup_stm32f40_41xxx.o(.text)
    I2C2_ER_IRQHandler                       0x0800026f   Thumb Code     0  startup_stm32f40_41xxx.o(.text)
    I2C2_EV_IRQHandler                       0x0800026f   Thumb Code     0  startup_stm32f40_41xxx.o(.text)
    I2C3_ER_IRQHandler                       0x0800026f   Thumb Code     0  startup_stm32f40_41xxx.o(.text)
    I2C3_EV_IRQHandler                       0x0800026f   Thumb Code     0  startup_stm32f40_41xxx.o(.text)
    OTG_FS_IRQHandler                        0x0800026f   Thumb Code     0  startup_stm32f40_41xxx.o(.text)
    OTG_FS_WKUP_IRQHandler                   0x0800026f   Thumb Code     0  startup_stm32f40_41xxx.o(.text)
    OTG_HS_EP1_IN_IRQHandler                 0x0800026f   Thumb Code     0  startup_stm32f40_41xxx.o(.text)
    OTG_HS_EP1_OUT_IRQHandler                0x0800026f   Thumb Code     0  startup_stm32f40_41xxx.o(.text)
    OTG_HS_IRQHandler                        0x0800026f   Thumb Code     0  startup_stm32f40_41xxx.o(.text)
    OTG_HS_WKUP_IRQHandler                   0x0800026f   Thumb Code     0  startup_stm32f40_41xxx.o(.text)
    PVD_IRQHandler                           0x0800026f   Thumb Code     0  startup_stm32f40_41xxx.o(.text)
    RCC_IRQHandler                           0x0800026f   Thumb Code     0  startup_stm32f40_41xxx.o(.text)
    RTC_Alarm_IRQHandler                     0x0800026f   Thumb Code     0  startup_stm32f40_41xxx.o(.text)
    SDIO_IRQHandler                          0x0800026f   Thumb Code     0  startup_stm32f40_41xxx.o(.text)
    SPI1_IRQHandler                          0x0800026f   Thumb Code     0  startup_stm32f40_41xxx.o(.text)
    SPI2_IRQHandler                          0x0800026f   Thumb Code     0  startup_stm32f40_41xxx.o(.text)
    SPI3_IRQHandler                          0x0800026f   Thumb Code     0  startup_stm32f40_41xxx.o(.text)
    TAMP_STAMP_IRQHandler                    0x0800026f   Thumb Code     0  startup_stm32f40_41xxx.o(.text)
    TIM1_BRK_TIM9_IRQHandler                 0x0800026f   Thumb Code     0  startup_stm32f40_41xxx.o(.text)
    TIM1_CC_IRQHandler                       0x0800026f   Thumb Code     0  startup_stm32f40_41xxx.o(.text)
    TIM1_TRG_COM_TIM11_IRQHandler            0x0800026f   Thumb Code     0  startup_stm32f40_41xxx.o(.text)
    TIM1_UP_TIM10_IRQHandler                 0x0800026f   Thumb Code     0  startup_stm32f40_41xxx.o(.text)
    TIM2_IRQHandler                          0x0800026f   Thumb Code     0  startup_stm32f40_41xxx.o(.text)
    TIM3_IRQHandler                          0x0800026f   Thumb Code     0  startup_stm32f40_41xxx.o(.text)
    TIM4_IRQHandler                          0x0800026f   Thumb Code     0  startup_stm32f40_41xxx.o(.text)
    TIM5_IRQHandler                          0x0800026f   Thumb Code     0  startup_stm32f40_41xxx.o(.text)
    TIM6_DAC_IRQHandler                      0x0800026f   Thumb Code     0  startup_stm32f40_41xxx.o(.text)
    TIM7_IRQHandler                          0x0800026f   Thumb Code     0  startup_stm32f40_41xxx.o(.text)
    TIM8_BRK_TIM12_IRQHandler                0x0800026f   Thumb Code     0  startup_stm32f40_41xxx.o(.text)
    TIM8_CC_IRQHandler                       0x0800026f   Thumb Code     0  startup_stm32f40_41xxx.o(.text)
    TIM8_TRG_COM_TIM14_IRQHandler            0x0800026f   Thumb Code     0  startup_stm32f40_41xxx.o(.text)
    TIM8_UP_TIM13_IRQHandler                 0x0800026f   Thumb Code     0  startup_stm32f40_41xxx.o(.text)
    UART4_IRQHandler                         0x0800026f   Thumb Code     0  startup_stm32f40_41xxx.o(.text)
    UART5_IRQHandler                         0x0800026f   Thumb Code     0  startup_stm32f40_41xxx.o(.text)
    USART6_IRQHandler                        0x0800026f   Thumb Code     0  startup_stm32f40_41xxx.o(.text)
    WWDG_IRQHandler                          0x0800026f   Thumb Code     0  startup_stm32f40_41xxx.o(.text)
    tolower                                  0x08000279   Thumb Code    12  tolower.o(.text)
    localeconv                               0x08000285   Thumb Code     4  localeconv.o(.text)
    ___aeabi_memcpy4$ret                     0x0800028d   Thumb Code     0  memcpy.o(.text)
    ___aeabi_memcpy8$ret                     0x0800028d   Thumb Code     0  memcpy.o(.text)
    __aeabi_memcpy                           0x0800028d   Thumb Code    40  memcpy.o(.text)
    memcpy                                   0x0800028d   Thumb Code     0  memcpy.o(.text)
    __aeabi_memset                           0x080002b5   Thumb Code    14  memseta.o(.text)
    __aeabi_memset4                          0x080002b5   Thumb Code     0  memseta.o(.text)
    __aeabi_memset8                          0x080002b5   Thumb Code     0  memseta.o(.text)
    __aeabi_memclr                           0x080002c3   Thumb Code     4  memseta.o(.text)
    __aeabi_memclr4                          0x080002c3   Thumb Code     0  memseta.o(.text)
    __aeabi_memclr8                          0x080002c3   Thumb Code     0  memseta.o(.text)
    memset                                   0x080002c7   Thumb Code    18  memseta.o(.text)
    strstr                                   0x080002d9   Thumb Code    36  strstr.o(.text)
    strlen                                   0x080002fd   Thumb Code    14  strlen.o(.text)
    strcmp                                   0x0800030b   Thumb Code    28  strcmp.o(.text)
    strcpy                                   0x08000327   Thumb Code    18  strcpy.o(.text)
    strncmp                                  0x08000339   Thumb Code    30  strncmp.o(.text)
    sscanf                                   0x08000359   Thumb Code    48  sscanf.o(.text)
    atoi                                     0x08000391   Thumb Code    26  atoi.o(.text)
    __aeabi_dadd                             0x080003ab   Thumb Code   322  dadd.o(.text)
    __aeabi_dsub                             0x080004ed   Thumb Code     6  dadd.o(.text)
    __aeabi_drsub                            0x080004f3   Thumb Code     6  dadd.o(.text)
    __aeabi_dmul                             0x080004f9   Thumb Code   228  dmul.o(.text)
    __aeabi_ddiv                             0x080005dd   Thumb Code   222  ddiv.o(.text)
    __aeabi_i2d                              0x080006bb   Thumb Code    34  dflti.o(.text)
    __aeabi_ui2d                             0x080006dd   Thumb Code    26  dfltui.o(.text)
    __aeabi_d2iz                             0x080006f7   Thumb Code    62  dfixi.o(.text)
    __aeabi_f2d                              0x08000735   Thumb Code    38  f2d.o(.text)
    __aeabi_cdcmpeq                          0x0800075d   Thumb Code     0  cdcmple.o(.text)
    __aeabi_cdcmple                          0x0800075d   Thumb Code    48  cdcmple.o(.text)
    __aeabi_cdrcmple                         0x0800078d   Thumb Code    48  cdrcmple.o(.text)
    __aeabi_d2f                              0x080007bd   Thumb Code    56  d2f.o(.text)
    __aeabi_uidiv                            0x080007f5   Thumb Code     0  uidiv.o(.text)
    __aeabi_uidivmod                         0x080007f5   Thumb Code    44  uidiv.o(.text)
    __aeabi_uldivmod                         0x08000821   Thumb Code    98  uldiv.o(.text)
    __aeabi_llsl                             0x08000883   Thumb Code    30  llshl.o(.text)
    _ll_shift_l                              0x08000883   Thumb Code     0  llshl.o(.text)
    __aeabi_llsr                             0x080008a1   Thumb Code    32  llushr.o(.text)
    _ll_ushift_r                             0x080008a1   Thumb Code     0  llushr.o(.text)
    __aeabi_lasr                             0x080008c1   Thumb Code    36  llsshr.o(.text)
    _ll_sshift_r                             0x080008c1   Thumb Code     0  llsshr.o(.text)
    _scanf_longlong                          0x080008e5   Thumb Code   342  _scanf_longlong.o(.text)
    _scanf_int                               0x08000a3b   Thumb Code   332  _scanf_int.o(.text)
    _scanf_string                            0x08000b87   Thumb Code   224  _scanf_str.o(.text)
    _scanf_real                              0x08000d91   Thumb Code     0  scanf_fp.o(.text)
    _scanf_really_real                       0x08000d91   Thumb Code   556  scanf_fp.o(.text)
    __vfscanf_char                           0x08000fd5   Thumb Code    20  scanf_char.o(.text)
    _sgetc                                   0x08000ff1   Thumb Code    30  _sgetc.o(.text)
    _sbackspace                              0x0800100f   Thumb Code    34  _sgetc.o(.text)
    __strtod_int                             0x08001067   Thumb Code    90  strtod.o(.text)
    strtol                                   0x080010cd   Thumb Code   112  strtol.o(.text)
    __I$use$fp                               0x0800113d   Thumb Code     0  iusefp.o(.text)
    _float_round                             0x0800113d   Thumb Code    18  fepilogue.o(.text)
    _float_epilogue                          0x0800114f   Thumb Code    92  fepilogue.o(.text)
    _double_round                            0x080011ab   Thumb Code    30  depilogue.o(.text)
    _double_epilogue                         0x080011c9   Thumb Code   156  depilogue.o(.text)
    __ARM_scalbn                             0x08001265   Thumb Code    46  dscalb.o(.text)
    scalbn                                   0x08001265   Thumb Code     0  dscalb.o(.text)
    __aeabi_d2ulz                            0x08001293   Thumb Code    48  dfixul.o(.text)
    __scatterload                            0x080012c5   Thumb Code    28  init.o(.text)
    __scatterload_rt2                        0x080012c5   Thumb Code     0  init.o(.text)
    __rt_ctype_table                         0x080012e9   Thumb Code     4  ctype_o.o(.text)
    isspace                                  0x080012f1   Thumb Code    18  isspace_o.o(.text)
    _chval                                   0x08001303   Thumb Code    28  _chval.o(.text)
    __vfscanf                                0x08001321   Thumb Code   808  _scanf.o(.text)
    _strtoul                                 0x0800164d   Thumb Code   158  _strtoul.o(.text)
    _dsqrt                                   0x080016eb   Thumb Code   162  dsqrt.o(.text)
    __aeabi_ul2d                             0x0800178d   Thumb Code    24  dfltul.o(.text)
    __decompress                             0x080017a5   Thumb Code     0  __dczerorl2.o(.text)
    __decompress1                            0x080017a5   Thumb Code    86  __dczerorl2.o(.text)
    ADC_Cmd                                  0x080017fb   Thumb Code    22  stm32f4xx_adc.o(i.ADC_Cmd)
    ADC_CommonInit                           0x08001811   Thumb Code    34  stm32f4xx_adc.o(i.ADC_CommonInit)
    ADC_GetConversionValue                   0x08001841   Thumb Code     8  stm32f4xx_adc.o(i.ADC_GetConversionValue)
    ADC_GetFlagStatus                        0x08001849   Thumb Code    18  stm32f4xx_adc.o(i.ADC_GetFlagStatus)
    ADC_Init                                 0x0800185d   Thumb Code    74  stm32f4xx_adc.o(i.ADC_Init)
    ADC_RegularChannelConfig                 0x080018b1   Thumb Code   184  stm32f4xx_adc.o(i.ADC_RegularChannelConfig)
    ADC_SoftwareStartConv                    0x08001969   Thumb Code    10  stm32f4xx_adc.o(i.ADC_SoftwareStartConv)
    BEEP_Init                                0x08001975   Thumb Code    50  led.o(i.BEEP_Init)
    BusFault_Handler                         0x080019ad   Thumb Code     4  stm32f4xx_it.o(i.BusFault_Handler)
    DHT11_Config                             0x080019b1   Thumb Code    60  adc.o(i.DHT11_Config)
    DHT11_GetACK                             0x080019f1   Thumb Code    84  adc.o(i.DHT11_GetACK)
    DHT11_GetValue                           0x08001a49   Thumb Code    86  adc.o(i.DHT11_GetValue)
    DHT11_ReadBit                            0x08001aa1   Thumb Code    78  adc.o(i.DHT11_ReadBit)
    DHT11_SetPinInputMode                    0x08001af5   Thumb Code    36  adc.o(i.DHT11_SetPinInputMode)
    DHT11_SetPinOutputMode                   0x08001b1d   Thumb Code    50  adc.o(i.DHT11_SetPinOutputMode)
    DHT11_StartSignal                        0x08001b55   Thumb Code    50  adc.o(i.DHT11_StartSignal)
    DebugMon_Handler                         0x08001b8d   Thumb Code     2  stm32f4xx_it.o(i.DebugMon_Handler)
    EXTI_ClearITPendingBit                   0x08001b91   Thumb Code     6  stm32f4xx_exti.o(i.EXTI_ClearITPendingBit)
    EXTI_Init                                0x08001b9d   Thumb Code   142  stm32f4xx_exti.o(i.EXTI_Init)
    Esp8266_Init                             0x08001c31   Thumb Code   278  esp8266.o(i.Esp8266_Init)
    FanConfig                                0x08001e95   Thumb Code   134  motor.o(i.FanConfig)
    FanInit                                  0x08001f31   Thumb Code    60  motor.o(i.FanInit)
    Fire_Config                              0x08001f71   Thumb Code   114  adc.o(i.Fire_Config)
    GPIO_Init                                0x08001fed   Thumb Code   144  stm32f4xx_gpio.o(i.GPIO_Init)
    GPIO_PinAFConfig                         0x0800207d   Thumb Code    70  stm32f4xx_gpio.o(i.GPIO_PinAFConfig)
    GPIO_ReadInputDataBit                    0x080020c3   Thumb Code    18  stm32f4xx_gpio.o(i.GPIO_ReadInputDataBit)
    GPIO_ResetBits                           0x080020d5   Thumb Code     4  stm32f4xx_gpio.o(i.GPIO_ResetBits)
    GPIO_SetBits                             0x080020d9   Thumb Code     4  stm32f4xx_gpio.o(i.GPIO_SetBits)
    Get_Network_Time                         0x080020dd   Thumb Code   224  nettime.o(i.Get_Network_Time)
    Get_Network_Weather                      0x08002389   Thumb Code   228  nettime.o(i.Get_Network_Weather)
    HardFault_Handler                        0x0800263d   Thumb Code     4  stm32f4xx_it.o(i.HardFault_Handler)
    IIC_Config                               0x08002641   Thumb Code    80  i2c.o(i.IIC_Config)
    IIC_SendByte                             0x080026f1   Thumb Code   122  i2c.o(i.IIC_SendByte)
    IIC_Start                                0x08002771   Thumb Code    50  i2c.o(i.IIC_Start)
    IIC_Stop                                 0x080027a9   Thumb Code    66  i2c.o(i.IIC_Stop)
    IIC_WaitSlaveAck                         0x080027f1   Thumb Code    60  i2c.o(i.IIC_WaitSlaveAck)
    KEY_Init                                 0x08002831   Thumb Code    56  led.o(i.KEY_Init)
    LED_Init                                 0x0800286d   Thumb Code    68  led.o(i.LED_Init)
    LightSensor_Config                       0x080028b5   Thumb Code   114  adc.o(i.LightSensor_Config)
    MemManage_Handler                        0x08002931   Thumb Code     4  stm32f4xx_it.o(i.MemManage_Handler)
    Motor_Config                             0x08002935   Thumb Code    44  motor.o(i.Motor_Config)
    Motorcw1                                 0x08002965   Thumb Code   188  motor.o(i.Motorcw1)
    Motorcw2                                 0x08002a25   Thumb Code   188  motor.o(i.Motorcw2)
    Mqtt_Connect_Aliyun                      0x08002ae5   Thumb Code   260  mqtt.o(i.Mqtt_Connect_Aliyun)
    NMI_Handler                              0x08002dd1   Thumb Code     2  stm32f4xx_it.o(i.NMI_Handler)
    NVIC_Init                                0x08002dd5   Thumb Code   106  misc.o(i.NVIC_Init)
    OLED_Clear                               0x08002e4d   Thumb Code    42  oled.o(i.OLED_Clear)
    OLED_DrawBMP                             0x08002e77   Thumb Code   118  oled.o(i.OLED_DrawBMP)
    OLED_Init                                0x08002eed   Thumb Code   152  oled.o(i.OLED_Init)
    OLED_Pow                                 0x08002f85   Thumb Code    20  oled.o(i.OLED_Pow)
    OLED_SetCursor                           0x08002f99   Thumb Code    34  oled.o(i.OLED_SetCursor)
    OLED_ShowChar                            0x08002fbd   Thumb Code   110  oled.o(i.OLED_ShowChar)
    OLED_ShowChinese                         0x08003031   Thumb Code    64  oled.o(i.OLED_ShowChinese)
    OLED_ShowChinese2                        0x08003075   Thumb Code    64  oled.o(i.OLED_ShowChinese2)
    OLED_ShowNum                             0x080030b9   Thumb Code    68  oled.o(i.OLED_ShowNum)
    OLED_ShowString                          0x080030fd   Thumb Code    40  oled.o(i.OLED_ShowString)
    OLED_WriteCommand                        0x08003125   Thumb Code    44  oled.o(i.OLED_WriteCommand)
    OLED_WriteData                           0x08003151   Thumb Code    44  oled.o(i.OLED_WriteData)
    PWR_BackupAccessCmd                      0x0800317d   Thumb Code     6  stm32f4xx_pwr.o(i.PWR_BackupAccessCmd)
    RCC_AHB1PeriphClockCmd                   0x08003189   Thumb Code    26  stm32f4xx_rcc.o(i.RCC_AHB1PeriphClockCmd)
    RCC_APB1PeriphClockCmd                   0x080031a9   Thumb Code    26  stm32f4xx_rcc.o(i.RCC_APB1PeriphClockCmd)
    RCC_APB2PeriphClockCmd                   0x080031c9   Thumb Code    26  stm32f4xx_rcc.o(i.RCC_APB2PeriphClockCmd)
    RCC_GetClocksFreq                        0x080031e9   Thumb Code   214  stm32f4xx_rcc.o(i.RCC_GetClocksFreq)
    RCC_GetFlagStatus                        0x080032d1   Thumb Code    60  stm32f4xx_rcc.o(i.RCC_GetFlagStatus)
    RCC_LSEConfig                            0x08003311   Thumb Code    40  stm32f4xx_rcc.o(i.RCC_LSEConfig)
    RCC_RTCCLKCmd                            0x0800333d   Thumb Code     6  stm32f4xx_rcc.o(i.RCC_RTCCLKCmd)
    RCC_RTCCLKConfig                         0x08003349   Thumb Code    50  stm32f4xx_rcc.o(i.RCC_RTCCLKConfig)
    RTC_ClearITPendingBit                    0x080033b9   Thumb Code    28  stm32f4xx_rtc.o(i.RTC_ClearITPendingBit)
    RTC_Config                               0x080033d9   Thumb Code   350  rtc.o(i.RTC_Config)
    RTC_EnterInitMode                        0x08003541   Thumb Code    76  stm32f4xx_rtc.o(i.RTC_EnterInitMode)
    RTC_ExitInitMode                         0x08003591   Thumb Code    14  stm32f4xx_rtc.o(i.RTC_ExitInitMode)
    RTC_GetDate                              0x080035a5   Thumb Code    68  stm32f4xx_rtc.o(i.RTC_GetDate)
    RTC_GetITStatus                          0x080035f1   Thumb Code    58  stm32f4xx_rtc.o(i.RTC_GetITStatus)
    RTC_GetTime                              0x08003631   Thumb Code    72  stm32f4xx_rtc.o(i.RTC_GetTime)
    RTC_ITConfig                             0x08003681   Thumb Code    94  stm32f4xx_rtc.o(i.RTC_ITConfig)
    RTC_Init                                 0x080036e5   Thumb Code    94  stm32f4xx_rtc.o(i.RTC_Init)
    RTC_SetDate                              0x08003749   Thumb Code   190  stm32f4xx_rtc.o(i.RTC_SetDate)
    RTC_SetTime                              0x08003811   Thumb Code   198  stm32f4xx_rtc.o(i.RTC_SetTime)
    RTC_SetWakeUpCounter                     0x080038e1   Thumb Code    22  stm32f4xx_rtc.o(i.RTC_SetWakeUpCounter)
    RTC_WKUP_IRQHandler                      0x080038fd   Thumb Code    34  rtc.o(i.RTC_WKUP_IRQHandler)
    RTC_WaitForSynchro                       0x08003925   Thumb Code    92  stm32f4xx_rtc.o(i.RTC_WaitForSynchro)
    RTC_WakeUpClockConfig                    0x08003985   Thumb Code    42  stm32f4xx_rtc.o(i.RTC_WakeUpClockConfig)
    RTC_WakeUpCmd                            0x080039b5   Thumb Code   116  stm32f4xx_rtc.o(i.RTC_WakeUpCmd)
    Smog_Config                              0x08003b19   Thumb Code   114  adc.o(i.Smog_Config)
    SysTick_Handler                          0x08003b95   Thumb Code    46  port.o(i.SysTick_Handler)
    SystemInit                               0x08003bc9   Thumb Code    88  system_stm32f4xx.o(i.SystemInit)
    TIM_ARRPreloadConfig                     0x08003c31   Thumb Code    24  stm32f4xx_tim.o(i.TIM_ARRPreloadConfig)
    TIM_Cmd                                  0x08003c49   Thumb Code    24  stm32f4xx_tim.o(i.TIM_Cmd)
    TIM_CtrlPWMOutputs                       0x08003c61   Thumb Code    30  stm32f4xx_tim.o(i.TIM_CtrlPWMOutputs)
    TIM_OC1Init                              0x08003c81   Thumb Code   114  stm32f4xx_tim.o(i.TIM_OC1Init)
    TIM_TimeBaseInit                         0x08003cfd   Thumb Code   104  stm32f4xx_tim.o(i.TIM_TimeBaseInit)
    USART1_Config                            0x08003d81   Thumb Code   166  usart2.o(i.USART1_Config)
    USART1_IRQHandler                        0x08003e31   Thumb Code    36  usart2.o(i.USART1_IRQHandler)
    USART2_Config                            0x08003e59   Thumb Code   164  usart.o(i.USART2_Config)
    USART2_Handle                            0x08003f05   Thumb Code   358  usart.o(i.USART2_Handle)
    USART2_IRQHandler                        0x080040c1   Thumb Code    94  usart.o(i.USART2_IRQHandler)
    USART2_SendString                        0x08004135   Thumb Code    38  usart.o(i.USART2_SendString)
    USART3_Config                            0x08004161   Thumb Code   166  usart2.o(i.USART3_Config)
    USART3_IRQHandler                        0x08004211   Thumb Code    74  usart2.o(i.USART3_IRQHandler)
    USART_ClearFlag                          0x08004271   Thumb Code    18  stm32f4xx_usart.o(i.USART_ClearFlag)
    USART_ClearITPendingBit                  0x08004283   Thumb Code    30  stm32f4xx_usart.o(i.USART_ClearITPendingBit)
    USART_Cmd                                0x080042a1   Thumb Code    24  stm32f4xx_usart.o(i.USART_Cmd)
    USART_GetFlagStatus                      0x080042b9   Thumb Code    26  stm32f4xx_usart.o(i.USART_GetFlagStatus)
    USART_GetITStatus                        0x080042d3   Thumb Code    84  stm32f4xx_usart.o(i.USART_GetITStatus)
    USART_ITConfig                           0x08004327   Thumb Code    74  stm32f4xx_usart.o(i.USART_ITConfig)
    USART_Init                               0x08004371   Thumb Code   204  stm32f4xx_usart.o(i.USART_Init)
    USART_ReceiveData                        0x08004445   Thumb Code    10  stm32f4xx_usart.o(i.USART_ReceiveData)
    USART_SendData                           0x0800444f   Thumb Code     8  stm32f4xx_usart.o(i.USART_SendData)
    UsageFault_Handler                       0x08004457   Thumb Code     4  stm32f4xx_it.o(i.UsageFault_Handler)
    Usart_SendByte                           0x0800445b   Thumb Code    30  usart2.o(i.Usart_SendByte)
    Usart_SendBytes                          0x08004479   Thumb Code    58  usart2.o(i.Usart_SendBytes)
    Usart_SendString                         0x080044b3   Thumb Code    50  usart2.o(i.Usart_SendString)
    WS2812_Init                              0x080044e5   Thumb Code    54  ws2812.o(i.WS2812_Init)
    WeatherHandle                            0x08004521   Thumb Code   146  nettime.o(i.WeatherHandle)
    __0printf                                0x080045f1   Thumb Code    22  printfa.o(i.__0printf)
    __1printf                                0x080045f1   Thumb Code     0  printfa.o(i.__0printf)
    __2printf                                0x080045f1   Thumb Code     0  printfa.o(i.__0printf)
    __c89printf                              0x080045f1   Thumb Code     0  printfa.o(i.__0printf)
    printf                                   0x080045f1   Thumb Code     0  printfa.o(i.__0printf)
    __0sprintf                               0x08004611   Thumb Code    34  printfa.o(i.__0sprintf)
    __1sprintf                               0x08004611   Thumb Code     0  printfa.o(i.__0sprintf)
    __2sprintf                               0x08004611   Thumb Code     0  printfa.o(i.__0sprintf)
    __c89sprintf                             0x08004611   Thumb Code     0  printfa.o(i.__0sprintf)
    sprintf                                  0x08004611   Thumb Code     0  printfa.o(i.__0sprintf)
    __ARM_fpclassify                         0x08004639   Thumb Code    48  fpclassify.o(i.__ARM_fpclassify)
    __aeabi_errno_addr                       0x08004669   Thumb Code     4  errno.o(i.__aeabi_errno_addr)
    __rt_errno_addr                          0x08004669   Thumb Code     0  errno.o(i.__aeabi_errno_addr)
    free                                     0x08004671   Thumb Code    88  mallocr.o(i.__free$realloc)
    __hardfp_pow                             0x080046d1   Thumb Code  3072  pow.o(i.__hardfp_pow)
    __kernel_poly                            0x08005321   Thumb Code   248  poly.o(i.__kernel_poly)
    malloc                                   0x08005419   Thumb Code    64  mallocr.o(i.__malloc$realloc)
    __mathlib_dbl_divzero                    0x08005469   Thumb Code    28  dunder.o(i.__mathlib_dbl_divzero)
    __mathlib_dbl_infnan2                    0x08005499   Thumb Code    20  dunder.o(i.__mathlib_dbl_infnan2)
    __mathlib_dbl_invalid                    0x080054b1   Thumb Code    24  dunder.o(i.__mathlib_dbl_invalid)
    __mathlib_dbl_overflow                   0x080054d1   Thumb Code    24  dunder.o(i.__mathlib_dbl_overflow)
    __mathlib_dbl_underflow                  0x080054f1   Thumb Code    24  dunder.o(i.__mathlib_dbl_underflow)
    __scatterload_copy                       0x08005511   Thumb Code    14  handlers.o(i.__scatterload_copy)
    __scatterload_null                       0x0800551f   Thumb Code     2  handlers.o(i.__scatterload_null)
    __scatterload_zeroinit                   0x08005521   Thumb Code    14  handlers.o(i.__scatterload_zeroinit)
    __set_errno                              0x08005531   Thumb Code     6  errno.o(i.__set_errno)
    _is_digit                                0x080056c1   Thumb Code    14  scanf_fp.o(i._is_digit)
    cJSON_Delete                             0x08005e45   Thumb Code    84  cjson.o(i.cJSON_Delete)
    cJSON_GetArrayItem                       0x08005e9d   Thumb Code    24  cjson.o(i.cJSON_GetArrayItem)
    cJSON_GetErrorPtr                        0x08005eb5   Thumb Code    12  cjson.o(i.cJSON_GetErrorPtr)
    cJSON_GetObjectItem                      0x08005ec5   Thumb Code    18  cjson.o(i.cJSON_GetObjectItem)
    cJSON_Parse                              0x08005ef3   Thumb Code    16  cjson.o(i.cJSON_Parse)
    cJSON_ParseWithOpts                      0x08005f05   Thumb Code   200  cjson.o(i.cJSON_ParseWithOpts)
    cJSON_Print                              0x08005fd5   Thumb Code    16  cjson.o(i.cJSON_Print)
    calculating_time                         0x08005fe9   Thumb Code   238  nettime.o(i.calculating_time)
    delay_ms                                 0x08006149   Thumb Code    60  delay.o(i.delay_ms)
    delay_us                                 0x08006185   Thumb Code    54  delay.o(i.delay_us)
    esp8266_check                            0x08006275   Thumb Code    30  esp8266.o(i.esp8266_check)
    esp8266_check_connection_status          0x080062a1   Thumb Code    42  esp8266.o(i.esp8266_check_connection_status)
    esp8266_connect_ap                       0x080062ed   Thumb Code   128  esp8266.o(i.esp8266_connect_ap)
    esp8266_connect_server                   0x080063bd   Thumb Code   130  esp8266.o(i.esp8266_connect_server)
    esp8266_disconnect_server                0x0800646d   Thumb Code    28  esp8266.o(i.esp8266_disconnect_server)
    esp8266_enable_echo                      0x080064a1   Thumb Code    42  esp8266.o(i.esp8266_enable_echo)
    esp8266_entry_transparent_transmission   0x080064e1   Thumb Code    92  esp8266.o(i.esp8266_entry_transparent_transmission)
    esp8266_exit_transparent_transmission    0x08006565   Thumb Code    24  esp8266.o(i.esp8266_exit_transparent_transmission)
    esp8266_find_str_in_rx_packet            0x08006585   Thumb Code    50  esp8266.o(i.esp8266_find_str_in_rx_packet)
    esp8266_reset                            0x080065bd   Thumb Code    30  esp8266.o(i.esp8266_reset)
    esp8266_send_at                          0x080065ed   Thumb Code    30  esp8266.o(i.esp8266_send_at)
    esp8266_send_bytes                       0x08006619   Thumb Code    18  esp8266.o(i.esp8266_send_bytes)
    esp8266_send_str                         0x08006631   Thumb Code    14  esp8266.o(i.esp8266_send_str)
    fabs                                     0x08006645   Thumb Code    24  fabs.o(i.fabs)
    fputc                                    0x0800665d   Thumb Code    32  usart2.o(i.fputc)
    main                                     0x08006741   Thumb Code   186  main.o(i.main)
    mqtt_cjson_parse                         0x08006835   Thumb Code   206  mqtt.o(i.mqtt_cjson_parse)
    mqtt_connect                             0x08006965   Thumb Code   656  mqtt.o(i.mqtt_connect)
    mqtt_msg_handle                          0x08006cd1   Thumb Code    68  mqtt.o(i.mqtt_msg_handle)
    mqtt_publish_data                        0x08006d29   Thumb Code   266  mqtt.o(i.mqtt_publish_data)
    mqtt_report_devices_status               0x08006e3d   Thumb Code    34  mqtt.o(i.mqtt_report_devices_status)
    mqtt_report_devices_status2              0x08006ec9   Thumb Code    30  mqtt.o(i.mqtt_report_devices_status2)
    mqtt_report_devices_status3              0x08006f4d   Thumb Code    30  mqtt.o(i.mqtt_report_devices_status3)
    mqtt_send_bytes                          0x08006fd1   Thumb Code    16  mqtt.o(i.mqtt_send_bytes)
    mqtt_send_heart                          0x08006fe1   Thumb Code   102  mqtt.o(i.mqtt_send_heart)
    mqtt_subscribe_topic                     0x08007099   Thumb Code   418  mqtt.o(i.mqtt_subscribe_topic)
    pvPortMalloc                             0x080085e1   Thumb Code   296  heap_4.o(i.pvPortMalloc)
    pvTaskIncrementMutexHeldCount            0x0800871d   Thumb Code    26  tasks.o(i.pvTaskIncrementMutexHeldCount)
    pxPortInitialiseStack                    0x0800873d   Thumb Code    38  port.o(i.pxPortInitialiseStack)
    realloc                                  0x08008769   Thumb Code   102  mallocr.o(i.realloc)
    sqrt                                     0x080087d5   Thumb Code   110  sqrt.o(i.sqrt)
    strtod                                   0x08008849   Thumb Code    34  strtod.o(i.strtod)
    task1_func                               0x08008879   Thumb Code   774  main.o(i.task1_func)
    task2_func                               0x08008c61   Thumb Code    48  main.o(i.task2_func)
    task3_func                               0x08008cad   Thumb Code    54  main.o(i.task3_func)
    uxListRemove                             0x08008e55   Thumb Code    40  list.o(i.uxListRemove)
    vListInitialise                          0x08008e7d   Thumb Code    26  list.o(i.vListInitialise)
    vListInitialiseItem                      0x08008e97   Thumb Code     6  list.o(i.vListInitialiseItem)
    vListInsert                              0x08008e9d   Thumb Code    52  list.o(i.vListInsert)
    vListInsertEnd                           0x08008ed1   Thumb Code    24  list.o(i.vListInsertEnd)
    vPortEnterCritical                       0x08008ee9   Thumb Code    76  port.o(i.vPortEnterCritical)
    vPortExitCritical                        0x08008f3d   Thumb Code    56  port.o(i.vPortExitCritical)
    vPortFree                                0x08008f79   Thumb Code   140  heap_4.o(i.vPortFree)
    vPortSetupTimerInterrupt                 0x0800900d   Thumb Code    26  port.o(i.vPortSetupTimerInterrupt)
    vTaskDelay                               0x0800902d   Thumb Code    82  tasks.o(i.vTaskDelay)
    vTaskMissedYield                         0x08009089   Thumb Code     8  tasks.o(i.vTaskMissedYield)
    vTaskPlaceOnEventList                    0x08009095   Thumb Code    52  tasks.o(i.vTaskPlaceOnEventList)
    vTaskPriorityInherit                     0x080090cd   Thumb Code   164  tasks.o(i.vTaskPriorityInherit)
    vTaskSetTimeOutState                     0x0800917d   Thumb Code    38  tasks.o(i.vTaskSetTimeOutState)
    vTaskStartScheduler                      0x080091ad   Thumb Code   108  tasks.o(i.vTaskStartScheduler)
    vTaskSuspendAll                          0x08009235   Thumb Code    12  tasks.o(i.vTaskSuspendAll)
    vTaskSwitchContext                       0x08009245   Thumb Code   118  tasks.o(i.vTaskSwitchContext)
    xPortStartScheduler                      0x080092d1   Thumb Code   288  port.o(i.xPortStartScheduler)
    xQueueCreateMutex                        0x0800940d   Thumb Code    34  queue.o(i.xQueueCreateMutex)
    xQueueGenericCreate                      0x0800942f   Thumb Code    88  queue.o(i.xQueueGenericCreate)
    xQueueGenericReceive                     0x08009489   Thumb Code   406  queue.o(i.xQueueGenericReceive)
    xQueueGenericReset                       0x08009625   Thumb Code   146  queue.o(i.xQueueGenericReset)
    xQueueGenericSend                        0x080096bd   Thumb Code   380  queue.o(i.xQueueGenericSend)
    xTaskCheckForTimeOut                     0x0800983d   Thumb Code   132  tasks.o(i.xTaskCheckForTimeOut)
    xTaskCreate                              0x080098c9   Thumb Code    96  tasks.o(i.xTaskCreate)
    xTaskIncrementTick                       0x08009929   Thumb Code   282  tasks.o(i.xTaskIncrementTick)
    xTaskPriorityDisinherit                  0x08009a71   Thumb Code   188  tasks.o(i.xTaskPriorityDisinherit)
    xTaskRemoveFromEventList                 0x08009b39   Thumb Code   128  tasks.o(i.xTaskRemoveFromEventList)
    xTaskResumeAll                           0x08009bd1   Thumb Code   224  tasks.o(i.xTaskResumeAll)
    Chinese_8x8                              0x08009cd4   Data           8  oled.o(.constdata)
    Chinese_16x16                            0x08009cdc   Data         320  oled.o(.constdata)
    OLED_F8x16                               0x08009e1c   Data        1520  oled.o(.constdata)
    __mathlib_zero                           0x0800a498   Data           8  qnan.o(.constdata)
    __internal_lconv                         0x0800a4a0   Data          56  ilconv.o(.constdata)
    __ctype_table                            0x0800a4d8   Data         129  ctype_o.o(.constdata)
    Region$$Table$$Base                      0x0800a88c   Number         0  anon$$obj.o(Region$$Table)
    Region$$Table$$Limit                     0x0800a8ac   Number         0  anon$$obj.o(Region$$Table)
    dhtbuf                                   0x20000010   Data           5  adc.o(.data)
    esp8266_transparent_transmission_sta     0x2000002c   Data           4  esp8266.o(.data)
    GPIO_InitStructure                       0x20000030   Data           8  motor.o(.data)
    mqtt_tx_len                              0x20000038   Data           4  mqtt.o(.data)
    RTC_DateStructure                        0x2000003c   Data           4  rtc.o(.data)
    RTC_TimeStructure                        0x20000040   Data           4  rtc.o(.data)
    uwTimeDisplay                            0x20000044   Data           4  rtc.o(.data)
    host_cnt                                 0x20000048   Data           4  usart.o(.data)
    host_recvflag                            0x2000004c   Data           1  usart.o(.data)
    Rx1Counter                               0x20000050   Data           1  usart2.o(.data)
    Rx1Data                                  0x20000051   Data           1  usart2.o(.data)
    Rx3Counter                               0x20000054   Data           4  usart2.o(.data)
    Rx3Data                                  0x20000058   Data           1  usart2.o(.data)
    Rx3End                                   0x20000059   Data           1  usart2.o(.data)
    __stdout                                 0x2000005c   Data           4  usart2.o(.data)
    __stdin                                  0x20000060   Data           4  usart2.o(.data)
    calendar                                 0x20000064   Data           6  nettime.o(.data)
    SystemCoreClock                          0x2000006c   Data           4  system_stm32f4xx.o(.data)
    AHBPrescTable                            0x20000070   Data          16  system_stm32f4xx.o(.data)
    BMP1                                     0x20000080   Data        1024  main.o(.data)
    BMP2                                     0x20000480   Data          64  main.o(.data)
    xSemaphore                               0x200004c0   Data           4  main.o(.data)
    task1_handle                             0x200004c4   Data           4  main.o(.data)
    task2_handle                             0x200004c8   Data           4  main.o(.data)
    task3_handle                             0x200004cc   Data           4  main.o(.data)
    pxCurrentTCB                             0x200004d0   Data           4  tasks.o(.data)
    __microlib_freelist                      0x20000530   Data           4  mvars.o(.data)
    __microlib_freelist_initialised          0x20000534   Data           4  mvars.o(.data)
    TIM_TimeBaseStructure                    0x2000053c   Data          12  motor.o(.bss)
    TIM_OCInitStructure                      0x20000548   Data          20  motor.o(.bss)
    mqtt_post_msg                            0x2000055c   Data         526  mqtt.o(.bss)
    host_buffer                              0x2000076a   Data         256  usart.o(.bss)
    Rx1Buffer                                0x2000086a   Data         256  usart2.o(.bss)
    Tx3Buffer                                0x2000096a   Data         512  usart2.o(.bss)
    Rx3Buffer                                0x20000b6a   Data         512  usart2.o(.bss)
    __heap_base                              0x20013a38   Data           0  startup_stm32f40_41xxx.o(HEAP)
    __heap_limit                             0x20014238   Data           0  startup_stm32f40_41xxx.o(HEAP)
    __initial_sp                             0x20014638   Data           0  startup_stm32f40_41xxx.o(STACK)



==============================================================================

Memory Map of the image

  Image Entry point : 0x08000189

  Load Region LR_IROM1 (Base: 0x08000000, Size: 0x0000ade8, Max: 0x00080000, ABSOLUTE, COMPRESSED[0x0000aa78])

    Execution Region ER_IROM1 (Exec base: 0x08000000, Load base: 0x08000000, Size: 0x0000a8ac, Max: 0x00080000, ABSOLUTE)

    Exec Addr    Load Addr    Size         Type   Attr      Idx    E Section Name        Object

    0x08000000   0x08000000   0x00000188   Data   RO            3    RESET               startup_stm32f40_41xxx.o
    0x08000188   0x08000188   0x00000000   Code   RO         5127  * .ARM.Collect$$$$00000000  mc_w.l(entry.o)
    0x08000188   0x08000188   0x00000004   Code   RO         5506    .ARM.Collect$$$$00000001  mc_w.l(entry2.o)
    0x0800018c   0x0800018c   0x00000004   Code   RO         5509    .ARM.Collect$$$$00000004  mc_w.l(entry5.o)
    0x08000190   0x08000190   0x00000000   Code   RO         5511    .ARM.Collect$$$$00000008  mc_w.l(entry7b.o)
    0x08000190   0x08000190   0x00000000   Code   RO         5513    .ARM.Collect$$$$0000000A  mc_w.l(entry8b.o)
    0x08000190   0x08000190   0x00000008   Code   RO         5514    .ARM.Collect$$$$0000000B  mc_w.l(entry9a.o)
    0x08000198   0x08000198   0x00000000   Code   RO         5516    .ARM.Collect$$$$0000000D  mc_w.l(entry10a.o)
    0x08000198   0x08000198   0x00000000   Code   RO         5518    .ARM.Collect$$$$0000000F  mc_w.l(entry11a.o)
    0x08000198   0x08000198   0x00000004   Code   RO         5507    .ARM.Collect$$$$00002712  mc_w.l(entry2.o)
    0x0800019c   0x0800019c   0x000000b6   Code   RO         5030    .emb_text           port.o
    0x08000252   0x08000252   0x00000002   PAD
    0x08000254   0x08000254   0x00000024   Code   RO            4    .text               startup_stm32f40_41xxx.o
    0x08000278   0x08000278   0x0000000c   Code   RO         5130    .text               mc_w.l(tolower.o)
    0x08000284   0x08000284   0x00000008   Code   RO         5132    .text               mc_w.l(localeconv.o)
    0x0800028c   0x0800028c   0x00000028   Code   RO         5134    .text               mc_w.l(memcpy.o)
    0x080002b4   0x080002b4   0x00000024   Code   RO         5140    .text               mc_w.l(memseta.o)
    0x080002d8   0x080002d8   0x00000024   Code   RO         5142    .text               mc_w.l(strstr.o)
    0x080002fc   0x080002fc   0x0000000e   Code   RO         5144    .text               mc_w.l(strlen.o)
    0x0800030a   0x0800030a   0x0000001c   Code   RO         5146    .text               mc_w.l(strcmp.o)
    0x08000326   0x08000326   0x00000012   Code   RO         5148    .text               mc_w.l(strcpy.o)
    0x08000338   0x08000338   0x0000001e   Code   RO         5150    .text               mc_w.l(strncmp.o)
    0x08000356   0x08000356   0x00000002   PAD
    0x08000358   0x08000358   0x00000038   Code   RO         5445    .text               mc_w.l(sscanf.o)
    0x08000390   0x08000390   0x0000001a   Code   RO         5447    .text               mc_w.l(atoi.o)
    0x080003aa   0x080003aa   0x0000014e   Code   RO         5449    .text               mf_w.l(dadd.o)
    0x080004f8   0x080004f8   0x000000e4   Code   RO         5451    .text               mf_w.l(dmul.o)
    0x080005dc   0x080005dc   0x000000de   Code   RO         5453    .text               mf_w.l(ddiv.o)
    0x080006ba   0x080006ba   0x00000022   Code   RO         5455    .text               mf_w.l(dflti.o)
    0x080006dc   0x080006dc   0x0000001a   Code   RO         5457    .text               mf_w.l(dfltui.o)
    0x080006f6   0x080006f6   0x0000003e   Code   RO         5459    .text               mf_w.l(dfixi.o)
    0x08000734   0x08000734   0x00000026   Code   RO         5461    .text               mf_w.l(f2d.o)
    0x0800075a   0x0800075a   0x00000002   PAD
    0x0800075c   0x0800075c   0x00000030   Code   RO         5463    .text               mf_w.l(cdcmple.o)
    0x0800078c   0x0800078c   0x00000030   Code   RO         5465    .text               mf_w.l(cdrcmple.o)
    0x080007bc   0x080007bc   0x00000038   Code   RO         5467    .text               mf_w.l(d2f.o)
    0x080007f4   0x080007f4   0x0000002c   Code   RO         5520    .text               mc_w.l(uidiv.o)
    0x08000820   0x08000820   0x00000062   Code   RO         5522    .text               mc_w.l(uldiv.o)
    0x08000882   0x08000882   0x0000001e   Code   RO         5524    .text               mc_w.l(llshl.o)
    0x080008a0   0x080008a0   0x00000020   Code   RO         5526    .text               mc_w.l(llushr.o)
    0x080008c0   0x080008c0   0x00000024   Code   RO         5528    .text               mc_w.l(llsshr.o)
    0x080008e4   0x080008e4   0x00000156   Code   RO         5541    .text               mc_w.l(_scanf_longlong.o)
    0x08000a3a   0x08000a3a   0x0000014c   Code   RO         5543    .text               mc_w.l(_scanf_int.o)
    0x08000b86   0x08000b86   0x000000e0   Code   RO         5545    .text               mc_w.l(_scanf_str.o)
    0x08000c66   0x08000c66   0x00000002   PAD
    0x08000c68   0x08000c68   0x00000360   Code   RO         5547    .text               mc_w.l(scanf_fp.o)
    0x08000fc8   0x08000fc8   0x00000028   Code   RO         5551    .text               mc_w.l(scanf_char.o)
    0x08000ff0   0x08000ff0   0x00000040   Code   RO         5553    .text               mc_w.l(_sgetc.o)
    0x08001030   0x08001030   0x0000009c   Code   RO         5555    .text               mc_w.l(strtod.o)
    0x080010cc   0x080010cc   0x00000070   Code   RO         5557    .text               mc_w.l(strtol.o)
    0x0800113c   0x0800113c   0x00000000   Code   RO         5559    .text               mc_w.l(iusefp.o)
    0x0800113c   0x0800113c   0x0000006e   Code   RO         5560    .text               mf_w.l(fepilogue.o)
    0x080011aa   0x080011aa   0x000000ba   Code   RO         5562    .text               mf_w.l(depilogue.o)
    0x08001264   0x08001264   0x0000002e   Code   RO         5566    .text               mf_w.l(dscalb.o)
    0x08001292   0x08001292   0x00000030   Code   RO         5568    .text               mf_w.l(dfixul.o)
    0x080012c2   0x080012c2   0x00000002   PAD
    0x080012c4   0x080012c4   0x00000024   Code   RO         5570    .text               mc_w.l(init.o)
    0x080012e8   0x080012e8   0x00000008   Code   RO         5574    .text               mc_w.l(ctype_o.o)
    0x080012f0   0x080012f0   0x00000012   Code   RO         5596    .text               mc_w.l(isspace_o.o)
    0x08001302   0x08001302   0x0000001c   Code   RO         5602    .text               mc_w.l(_chval.o)
    0x0800131e   0x0800131e   0x00000002   PAD
    0x08001320   0x08001320   0x0000032c   Code   RO         5604    .text               mc_w.l(_scanf.o)
    0x0800164c   0x0800164c   0x0000009e   Code   RO         5606    .text               mc_w.l(_strtoul.o)
    0x080016ea   0x080016ea   0x000000a2   Code   RO         5608    .text               mf_w.l(dsqrt.o)
    0x0800178c   0x0800178c   0x00000018   Code   RO         5610    .text               mf_w.l(dfltul.o)
    0x080017a4   0x080017a4   0x00000056   Code   RO         5623    .text               mc_w.l(__dczerorl2.o)
    0x080017fa   0x080017fa   0x00000016   Code   RO         2387    i.ADC_Cmd           stm32f4xx_adc.o
    0x08001810   0x08001810   0x00000030   Code   RO         2388    i.ADC_CommonInit    stm32f4xx_adc.o
    0x08001840   0x08001840   0x00000008   Code   RO         2399    i.ADC_GetConversionValue  stm32f4xx_adc.o
    0x08001848   0x08001848   0x00000012   Code   RO         2400    i.ADC_GetFlagStatus  stm32f4xx_adc.o
    0x0800185a   0x0800185a   0x00000002   PAD
    0x0800185c   0x0800185c   0x00000054   Code   RO         2407    i.ADC_Init          stm32f4xx_adc.o
    0x080018b0   0x080018b0   0x000000b8   Code   RO         2412    i.ADC_RegularChannelConfig  stm32f4xx_adc.o
    0x08001968   0x08001968   0x0000000a   Code   RO         2414    i.ADC_SoftwareStartConv  stm32f4xx_adc.o
    0x08001972   0x08001972   0x00000002   PAD
    0x08001974   0x08001974   0x00000038   Code   RO         3501    i.BEEP_Init         led.o
    0x080019ac   0x080019ac   0x00000004   Code   RO         4340    i.BusFault_Handler  stm32f4xx_it.o
    0x080019b0   0x080019b0   0x00000040   Code   RO         2623    i.DHT11_Config      adc.o
    0x080019f0   0x080019f0   0x00000058   Code   RO         2624    i.DHT11_GetACK      adc.o
    0x08001a48   0x08001a48   0x00000056   Code   RO         2625    i.DHT11_GetValue    adc.o
    0x08001a9e   0x08001a9e   0x00000002   PAD
    0x08001aa0   0x08001aa0   0x00000054   Code   RO         2626    i.DHT11_ReadBit     adc.o
    0x08001af4   0x08001af4   0x00000028   Code   RO         2627    i.DHT11_SetPinInputMode  adc.o
    0x08001b1c   0x08001b1c   0x00000038   Code   RO         2628    i.DHT11_SetPinOutputMode  adc.o
    0x08001b54   0x08001b54   0x00000038   Code   RO         2629    i.DHT11_StartSignal  adc.o
    0x08001b8c   0x08001b8c   0x00000002   Code   RO         4341    i.DebugMon_Handler  stm32f4xx_it.o
    0x08001b8e   0x08001b8e   0x00000002   PAD
    0x08001b90   0x08001b90   0x0000000c   Code   RO         2320    i.EXTI_ClearITPendingBit  stm32f4xx_exti.o
    0x08001b9c   0x08001b9c   0x00000094   Code   RO         2325    i.EXTI_Init         stm32f4xx_exti.o
    0x08001c30   0x08001c30   0x00000264   Code   RO         3272    i.Esp8266_Init      esp8266.o
    0x08001e94   0x08001e94   0x0000009c   Code   RO         3536    i.FanConfig         motor.o
    0x08001f30   0x08001f30   0x00000040   Code   RO         3537    i.FanInit           motor.o
    0x08001f70   0x08001f70   0x0000007c   Code   RO         2630    i.Fire_Config       adc.o
    0x08001fec   0x08001fec   0x00000090   Code   RO          496    i.GPIO_Init         stm32f4xx_gpio.o
    0x0800207c   0x0800207c   0x00000046   Code   RO          497    i.GPIO_PinAFConfig  stm32f4xx_gpio.o
    0x080020c2   0x080020c2   0x00000012   Code   RO          500    i.GPIO_ReadInputDataBit  stm32f4xx_gpio.o
    0x080020d4   0x080020d4   0x00000004   Code   RO          503    i.GPIO_ResetBits    stm32f4xx_gpio.o
    0x080020d8   0x080020d8   0x00000004   Code   RO          504    i.GPIO_SetBits      stm32f4xx_gpio.o
    0x080020dc   0x080020dc   0x000002ac   Code   RO         4160    i.Get_Network_Time  nettime.o
    0x08002388   0x08002388   0x000002b4   Code   RO         4161    i.Get_Network_Weather  nettime.o
    0x0800263c   0x0800263c   0x00000004   Code   RO         4342    i.HardFault_Handler  stm32f4xx_it.o
    0x08002640   0x08002640   0x00000054   Code   RO         3432    i.IIC_Config        i2c.o
    0x08002694   0x08002694   0x00000028   Code   RO         3435    i.IIC_SDASetInputMode  i2c.o
    0x080026bc   0x080026bc   0x00000034   Code   RO         3436    i.IIC_SDASetOutputMode  i2c.o
    0x080026f0   0x080026f0   0x00000080   Code   RO         3437    i.IIC_SendByte      i2c.o
    0x08002770   0x08002770   0x00000038   Code   RO         3438    i.IIC_Start         i2c.o
    0x080027a8   0x080027a8   0x00000048   Code   RO         3439    i.IIC_Stop          i2c.o
    0x080027f0   0x080027f0   0x00000040   Code   RO         3440    i.IIC_WaitSlaveAck  i2c.o
    0x08002830   0x08002830   0x0000003c   Code   RO         3502    i.KEY_Init          led.o
    0x0800286c   0x0800286c   0x00000048   Code   RO         3503    i.LED_Init          led.o
    0x080028b4   0x080028b4   0x0000007c   Code   RO         2631    i.LightSensor_Config  adc.o
    0x08002930   0x08002930   0x00000004   Code   RO         4343    i.MemManage_Handler  stm32f4xx_it.o
    0x08002934   0x08002934   0x00000030   Code   RO         3539    i.Motor_Config      motor.o
    0x08002964   0x08002964   0x000000c0   Code   RO         3540    i.Motorcw1          motor.o
    0x08002a24   0x08002a24   0x000000c0   Code   RO         3541    i.Motorcw2          motor.o
    0x08002ae4   0x08002ae4   0x000002ec   Code   RO         3593    i.Mqtt_Connect_Aliyun  mqtt.o
    0x08002dd0   0x08002dd0   0x00000002   Code   RO         4344    i.NMI_Handler       stm32f4xx_it.o
    0x08002dd2   0x08002dd2   0x00000002   PAD
    0x08002dd4   0x08002dd4   0x00000078   Code   RO           12    i.NVIC_Init         misc.o
    0x08002e4c   0x08002e4c   0x0000002a   Code   RO         3709    i.OLED_Clear        oled.o
    0x08002e76   0x08002e76   0x00000076   Code   RO         3710    i.OLED_DrawBMP      oled.o
    0x08002eec   0x08002eec   0x00000098   Code   RO         3711    i.OLED_Init         oled.o
    0x08002f84   0x08002f84   0x00000014   Code   RO         3712    i.OLED_Pow          oled.o
    0x08002f98   0x08002f98   0x00000022   Code   RO         3713    i.OLED_SetCursor    oled.o
    0x08002fba   0x08002fba   0x00000002   PAD
    0x08002fbc   0x08002fbc   0x00000074   Code   RO         3715    i.OLED_ShowChar     oled.o
    0x08003030   0x08003030   0x00000044   Code   RO         3716    i.OLED_ShowChinese  oled.o
    0x08003074   0x08003074   0x00000044   Code   RO         3717    i.OLED_ShowChinese2  oled.o
    0x080030b8   0x080030b8   0x00000044   Code   RO         3719    i.OLED_ShowNum      oled.o
    0x080030fc   0x080030fc   0x00000028   Code   RO         3721    i.OLED_ShowString   oled.o
    0x08003124   0x08003124   0x0000002c   Code   RO         3722    i.OLED_WriteCommand  oled.o
    0x08003150   0x08003150   0x0000002c   Code   RO         3723    i.OLED_WriteData    oled.o
    0x0800317c   0x0800317c   0x0000000c   Code   RO         1923    i.PWR_BackupAccessCmd  stm32f4xx_pwr.o
    0x08003188   0x08003188   0x00000020   Code   RO          161    i.RCC_AHB1PeriphClockCmd  stm32f4xx_rcc.o
    0x080031a8   0x080031a8   0x00000020   Code   RO          170    i.RCC_APB1PeriphClockCmd  stm32f4xx_rcc.o
    0x080031c8   0x080031c8   0x00000020   Code   RO          173    i.RCC_APB2PeriphClockCmd  stm32f4xx_rcc.o
    0x080031e8   0x080031e8   0x000000e8   Code   RO          182    i.RCC_GetClocksFreq  stm32f4xx_rcc.o
    0x080032d0   0x080032d0   0x00000040   Code   RO          183    i.RCC_GetFlagStatus  stm32f4xx_rcc.o
    0x08003310   0x08003310   0x0000002c   Code   RO          191    i.RCC_LSEConfig     stm32f4xx_rcc.o
    0x0800333c   0x0800333c   0x0000000c   Code   RO          205    i.RCC_RTCCLKCmd     stm32f4xx_rcc.o
    0x08003348   0x08003348   0x0000003c   Code   RO          206    i.RCC_RTCCLKConfig  stm32f4xx_rcc.o
    0x08003384   0x08003384   0x00000016   Code   RO         1572    i.RTC_Bcd2ToByte    stm32f4xx_rtc.o
    0x0800339a   0x0800339a   0x0000001c   Code   RO         1574    i.RTC_ByteToBcd2    stm32f4xx_rtc.o
    0x080033b6   0x080033b6   0x00000002   PAD
    0x080033b8   0x080033b8   0x00000020   Code   RO         1578    i.RTC_ClearITPendingBit  stm32f4xx_rtc.o
    0x080033d8   0x080033d8   0x00000168   Code   RO         3825    i.RTC_Config        rtc.o
    0x08003540   0x08003540   0x00000050   Code   RO         1584    i.RTC_EnterInitMode  stm32f4xx_rtc.o
    0x08003590   0x08003590   0x00000014   Code   RO         1585    i.RTC_ExitInitMode  stm32f4xx_rtc.o
    0x080035a4   0x080035a4   0x0000004c   Code   RO         1588    i.RTC_GetDate       stm32f4xx_rtc.o
    0x080035f0   0x080035f0   0x00000040   Code   RO         1590    i.RTC_GetITStatus   stm32f4xx_rtc.o
    0x08003630   0x08003630   0x00000050   Code   RO         1593    i.RTC_GetTime       stm32f4xx_rtc.o
    0x08003680   0x08003680   0x00000064   Code   RO         1597    i.RTC_ITConfig      stm32f4xx_rtc.o
    0x080036e4   0x080036e4   0x00000064   Code   RO         1598    i.RTC_Init          stm32f4xx_rtc.o
    0x08003748   0x08003748   0x000000c8   Code   RO         1604    i.RTC_SetDate       stm32f4xx_rtc.o
    0x08003810   0x08003810   0x000000d0   Code   RO         1605    i.RTC_SetTime       stm32f4xx_rtc.o
    0x080038e0   0x080038e0   0x0000001c   Code   RO         1606    i.RTC_SetWakeUpCounter  stm32f4xx_rtc.o
    0x080038fc   0x080038fc   0x00000028   Code   RO         3826    i.RTC_WKUP_IRQHandler  rtc.o
    0x08003924   0x08003924   0x00000060   Code   RO         1621    i.RTC_WaitForSynchro  stm32f4xx_rtc.o
    0x08003984   0x08003984   0x00000030   Code   RO         1622    i.RTC_WakeUpClockConfig  stm32f4xx_rtc.o
    0x080039b4   0x080039b4   0x00000078   Code   RO         1623    i.RTC_WakeUpCmd     stm32f4xx_rtc.o
    0x08003a2c   0x08003a2c   0x000000ec   Code   RO         4209    i.SetSysClock       system_stm32f4xx.o
    0x08003b18   0x08003b18   0x0000007c   Code   RO         2632    i.Smog_Config       adc.o
    0x08003b94   0x08003b94   0x00000034   Code   RO         5031    i.SysTick_Handler   port.o
    0x08003bc8   0x08003bc8   0x00000068   Code   RO         4211    i.SystemInit        system_stm32f4xx.o
    0x08003c30   0x08003c30   0x00000018   Code   RO          597    i.TIM_ARRPreloadConfig  stm32f4xx_tim.o
    0x08003c48   0x08003c48   0x00000018   Code   RO          609    i.TIM_Cmd           stm32f4xx_tim.o
    0x08003c60   0x08003c60   0x0000001e   Code   RO          611    i.TIM_CtrlPWMOutputs  stm32f4xx_tim.o
    0x08003c7e   0x08003c7e   0x00000002   PAD
    0x08003c80   0x08003c80   0x0000007c   Code   RO          638    i.TIM_OC1Init       stm32f4xx_tim.o
    0x08003cfc   0x08003cfc   0x00000084   Code   RO          681    i.TIM_TimeBaseInit  stm32f4xx_tim.o
    0x08003d80   0x08003d80   0x000000b0   Code   RO         3948    i.USART1_Config     usart2.o
    0x08003e30   0x08003e30   0x00000028   Code   RO         3949    i.USART1_IRQHandler  usart2.o
    0x08003e58   0x08003e58   0x000000ac   Code   RO         3890    i.USART2_Config     usart.o
    0x08003f04   0x08003f04   0x000001bc   Code   RO         3891    i.USART2_Handle     usart.o
    0x080040c0   0x080040c0   0x00000074   Code   RO         3892    i.USART2_IRQHandler  usart.o
    0x08004134   0x08004134   0x0000002c   Code   RO         3893    i.USART2_SendString  usart.o
    0x08004160   0x08004160   0x000000b0   Code   RO         3950    i.USART3_Config     usart2.o
    0x08004210   0x08004210   0x00000060   Code   RO         3951    i.USART3_IRQHandler  usart2.o
    0x08004270   0x08004270   0x00000012   Code   RO         1217    i.USART_ClearFlag   stm32f4xx_usart.o
    0x08004282   0x08004282   0x0000001e   Code   RO         1218    i.USART_ClearITPendingBit  stm32f4xx_usart.o
    0x080042a0   0x080042a0   0x00000018   Code   RO         1221    i.USART_Cmd         stm32f4xx_usart.o
    0x080042b8   0x080042b8   0x0000001a   Code   RO         1224    i.USART_GetFlagStatus  stm32f4xx_usart.o
    0x080042d2   0x080042d2   0x00000054   Code   RO         1225    i.USART_GetITStatus  stm32f4xx_usart.o
    0x08004326   0x08004326   0x0000004a   Code   RO         1227    i.USART_ITConfig    stm32f4xx_usart.o
    0x08004370   0x08004370   0x000000d4   Code   RO         1228    i.USART_Init        stm32f4xx_usart.o
    0x08004444   0x08004444   0x0000000a   Code   RO         1235    i.USART_ReceiveData  stm32f4xx_usart.o
    0x0800444e   0x0800444e   0x00000008   Code   RO         1238    i.USART_SendData    stm32f4xx_usart.o
    0x08004456   0x08004456   0x00000004   Code   RO         4345    i.UsageFault_Handler  stm32f4xx_it.o
    0x0800445a   0x0800445a   0x0000001e   Code   RO         3954    i.Usart_SendByte    usart2.o
    0x08004478   0x08004478   0x0000003a   Code   RO         3955    i.Usart_SendBytes   usart2.o
    0x080044b2   0x080044b2   0x00000032   Code   RO         3957    i.Usart_SendString  usart2.o
    0x080044e4   0x080044e4   0x0000003c   Code   RO         4048    i.WS2812_Init       ws2812.o
    0x08004520   0x08004520   0x000000d0   Code   RO         4162    i.WeatherHandle     nettime.o
    0x080045f0   0x080045f0   0x00000020   Code   RO         5389    i.__0printf         mc_w.l(printfa.o)
    0x08004610   0x08004610   0x00000028   Code   RO         5391    i.__0sprintf        mc_w.l(printfa.o)
    0x08004638   0x08004638   0x00000030   Code   RO         5489    i.__ARM_fpclassify  m_wm.l(fpclassify.o)
    0x08004668   0x08004668   0x00000008   Code   RO         5534    i.__aeabi_errno_addr  mc_w.l(errno.o)
    0x08004670   0x08004670   0x0000005c   Code   RO         5421    i.__free$realloc    mc_w.l(mallocr.o)
    0x080046cc   0x080046cc   0x00000004   PAD
    0x080046d0   0x080046d0   0x00000c50   Code   RO         5107    i.__hardfp_pow      m_wm.l(pow.o)
    0x08005320   0x08005320   0x000000f8   Code   RO         5491    i.__kernel_poly     m_wm.l(poly.o)
    0x08005418   0x08005418   0x00000050   Code   RO         5422    i.__malloc$realloc  mc_w.l(mallocr.o)
    0x08005468   0x08005468   0x00000030   Code   RO         5469    i.__mathlib_dbl_divzero  m_wm.l(dunder.o)
    0x08005498   0x08005498   0x00000014   Code   RO         5471    i.__mathlib_dbl_infnan2  m_wm.l(dunder.o)
    0x080054ac   0x080054ac   0x00000004   PAD
    0x080054b0   0x080054b0   0x00000020   Code   RO         5472    i.__mathlib_dbl_invalid  m_wm.l(dunder.o)
    0x080054d0   0x080054d0   0x00000020   Code   RO         5473    i.__mathlib_dbl_overflow  m_wm.l(dunder.o)
    0x080054f0   0x080054f0   0x00000020   Code   RO         5475    i.__mathlib_dbl_underflow  m_wm.l(dunder.o)
    0x08005510   0x08005510   0x0000000e   Code   RO         5617    i.__scatterload_copy  mc_w.l(handlers.o)
    0x0800551e   0x0800551e   0x00000002   Code   RO         5618    i.__scatterload_null  mc_w.l(handlers.o)
    0x08005520   0x08005520   0x0000000e   Code   RO         5619    i.__scatterload_zeroinit  mc_w.l(handlers.o)
    0x0800552e   0x0800552e   0x00000002   PAD
    0x08005530   0x08005530   0x0000000c   Code   RO         5536    i.__set_errno       mc_w.l(errno.o)
    0x0800553c   0x0800553c   0x00000184   Code   RO         5396    i._fp_digits        mc_w.l(printfa.o)
    0x080056c0   0x080056c0   0x0000000e   Code   RO         5549    i._is_digit         mc_w.l(scanf_fp.o)
    0x080056ce   0x080056ce   0x00000002   PAD
    0x080056d0   0x080056d0   0x000006dc   Code   RO         5397    i._printf_core      mc_w.l(printfa.o)
    0x08005dac   0x08005dac   0x00000024   Code   RO         5398    i._printf_post_padding  mc_w.l(printfa.o)
    0x08005dd0   0x08005dd0   0x0000002e   Code   RO         5399    i._printf_pre_padding  mc_w.l(printfa.o)
    0x08005dfe   0x08005dfe   0x0000000a   Code   RO         5401    i._sputc            mc_w.l(printfa.o)
    0x08005e08   0x08005e08   0x0000003a   Code   RO         2707    i.buffer_skip_whitespace  cjson.o
    0x08005e42   0x08005e42   0x00000002   PAD
    0x08005e44   0x08005e44   0x00000058   Code   RO         2727    i.cJSON_Delete      cjson.o
    0x08005e9c   0x08005e9c   0x00000018   Code   RO         2736    i.cJSON_GetArrayItem  cjson.o
    0x08005eb4   0x08005eb4   0x00000010   Code   RO         2738    i.cJSON_GetErrorPtr  cjson.o
    0x08005ec4   0x08005ec4   0x00000012   Code   RO         2739    i.cJSON_GetObjectItem  cjson.o
    0x08005ed6   0x08005ed6   0x0000001c   Code   RO         2755    i.cJSON_New_Item    cjson.o
    0x08005ef2   0x08005ef2   0x00000010   Code   RO         2756    i.cJSON_Parse       cjson.o
    0x08005f02   0x08005f02   0x00000002   PAD
    0x08005f04   0x08005f04   0x000000d0   Code   RO         2757    i.cJSON_ParseWithOpts  cjson.o
    0x08005fd4   0x08005fd4   0x00000014   Code   RO         2758    i.cJSON_Print       cjson.o
    0x08005fe8   0x08005fe8   0x00000118   Code   RO         4163    i.calculating_time  nettime.o
    0x08006100   0x08006100   0x00000048   Code   RO         2771    i.case_insensitive_strcmp  cjson.o
    0x08006148   0x08006148   0x0000003c   Code   RO         3246    i.delay_ms          delay.o
    0x08006184   0x08006184   0x00000036   Code   RO         3247    i.delay_us          delay.o
    0x080061ba   0x080061ba   0x000000ba   Code   RO         2773    i.ensure            cjson.o
    0x08006274   0x08006274   0x0000002c   Code   RO         3276    i.esp8266_check     esp8266.o
    0x080062a0   0x080062a0   0x0000004c   Code   RO         3277    i.esp8266_check_connection_status  esp8266.o
    0x080062ec   0x080062ec   0x000000d0   Code   RO         3279    i.esp8266_connect_ap  esp8266.o
    0x080063bc   0x080063bc   0x000000b0   Code   RO         3280    i.esp8266_connect_server  esp8266.o
    0x0800646c   0x0800646c   0x00000034   Code   RO         3282    i.esp8266_disconnect_server  esp8266.o
    0x080064a0   0x080064a0   0x00000040   Code   RO         3283    i.esp8266_enable_echo  esp8266.o
    0x080064e0   0x080064e0   0x00000084   Code   RO         3285    i.esp8266_entry_transparent_transmission  esp8266.o
    0x08006564   0x08006564   0x00000020   Code   RO         3286    i.esp8266_exit_transparent_transmission  esp8266.o
    0x08006584   0x08006584   0x00000038   Code   RO         3287    i.esp8266_find_str_in_rx_packet  esp8266.o
    0x080065bc   0x080065bc   0x00000030   Code   RO         3289    i.esp8266_reset     esp8266.o
    0x080065ec   0x080065ec   0x0000002c   Code   RO         3290    i.esp8266_send_at   esp8266.o
    0x08006618   0x08006618   0x00000018   Code   RO         3291    i.esp8266_send_bytes  esp8266.o
    0x08006630   0x08006630   0x00000014   Code   RO         3292    i.esp8266_send_str  esp8266.o
    0x08006644   0x08006644   0x00000018   Code   RO         5485    i.fabs              m_wm.l(fabs.o)
    0x0800665c   0x0800665c   0x00000024   Code   RO         3959    i.fputc             usart2.o
    0x08006680   0x08006680   0x0000001e   Code   RO         2774    i.get_array_item    cjson.o
    0x0800669e   0x0800669e   0x0000000e   Code   RO         2775    i.get_decimal_point  cjson.o
    0x080066ac   0x080066ac   0x00000044   Code   RO         2776    i.get_object_item   cjson.o
    0x080066f0   0x080066f0   0x00000050   Code   RO         5423    i.internal_alloc    mc_w.l(mallocr.o)
    0x08006740   0x08006740   0x000000f4   Code   RO         4246    i.main              main.o
    0x08006834   0x08006834   0x00000130   Code   RO         3594    i.mqtt_cjson_parse  mqtt.o
    0x08006964   0x08006964   0x0000036c   Code   RO         3595    i.mqtt_connect      mqtt.o
    0x08006cd0   0x08006cd0   0x00000058   Code   RO         3597    i.mqtt_msg_handle   mqtt.o
    0x08006d28   0x08006d28   0x00000114   Code   RO         3598    i.mqtt_publish_data  mqtt.o
    0x08006e3c   0x08006e3c   0x0000008c   Code   RO         3599    i.mqtt_report_devices_status  mqtt.o
    0x08006ec8   0x08006ec8   0x00000084   Code   RO         3600    i.mqtt_report_devices_status2  mqtt.o
    0x08006f4c   0x08006f4c   0x00000084   Code   RO         3601    i.mqtt_report_devices_status3  mqtt.o
    0x08006fd0   0x08006fd0   0x00000010   Code   RO         3602    i.mqtt_send_bytes   mqtt.o
    0x08006fe0   0x08006fe0   0x000000b8   Code   RO         3603    i.mqtt_send_heart   mqtt.o
    0x08007098   0x08007098   0x00000224   Code   RO         3604    i.mqtt_subscribe_topic  mqtt.o
    0x080072bc   0x080072bc   0x000000f4   Code   RO         2777    i.parse_array       cjson.o
    0x080073b0   0x080073b0   0x0000005a   Code   RO         2778    i.parse_hex4        cjson.o
    0x0800740a   0x0800740a   0x00000002   PAD
    0x0800740c   0x0800740c   0x00000154   Code   RO         2779    i.parse_number      cjson.o
    0x08007560   0x08007560   0x0000013a   Code   RO         2780    i.parse_object      cjson.o
    0x0800769a   0x0800769a   0x0000018c   Code   RO         2781    i.parse_string      cjson.o
    0x08007826   0x08007826   0x00000002   PAD
    0x08007828   0x08007828   0x0000013c   Code   RO         2782    i.parse_value       cjson.o
    0x08007964   0x08007964   0x000000ae   Code   RO         2783    i.print             cjson.o
    0x08007a12   0x08007a12   0x000000b2   Code   RO         2784    i.print_array       cjson.o
    0x08007ac4   0x08007ac4   0x0000010c   Code   RO         2785    i.print_number      cjson.o
    0x08007bd0   0x08007bd0   0x00000174   Code   RO         2786    i.print_object      cjson.o
    0x08007d44   0x08007d44   0x00000010   Code   RO         2787    i.print_string      cjson.o
    0x08007d54   0x08007d54   0x00000174   Code   RO         2788    i.print_string_ptr  cjson.o
    0x08007ec8   0x08007ec8   0x00000110   Code   RO         2789    i.print_value       cjson.o
    0x08007fd8   0x08007fd8   0x00000098   Code   RO         4439    i.prvAddCurrentTaskToDelayedList  tasks.o
    0x08008070   0x08008070   0x000000b8   Code   RO         4440    i.prvAddNewTaskToReadyList  tasks.o
    0x08008128   0x08008128   0x00000064   Code   RO         4441    i.prvCheckTasksWaitingTermination  tasks.o
    0x0800818c   0x0800818c   0x0000002a   Code   RO         4782    i.prvCopyDataFromQueue  queue.o
    0x080081b6   0x080081b6   0x0000007c   Code   RO         4783    i.prvCopyDataToQueue  queue.o
    0x08008232   0x08008232   0x00000012   Code   RO         4442    i.prvDeleteTCB      tasks.o
    0x08008244   0x08008244   0x0000007c   Code   RO         4969    i.prvHeapInit       heap_4.o
    0x080082c0   0x080082c0   0x00000028   Code   RO         4443    i.prvIdleTask       tasks.o
    0x080082e8   0x080082e8   0x0000001c   Code   RO         4784    i.prvInitialiseMutex  queue.o
    0x08008304   0x08008304   0x0000002a   Code   RO         4785    i.prvInitialiseNewQueue  queue.o
    0x0800832e   0x0800832e   0x000000b4   Code   RO         4444    i.prvInitialiseNewTask  tasks.o
    0x080083e2   0x080083e2   0x00000002   PAD
    0x080083e4   0x080083e4   0x00000068   Code   RO         4445    i.prvInitialiseTaskLists  tasks.o
    0x0800844c   0x0800844c   0x00000068   Code   RO         4970    i.prvInsertBlockIntoFreeList  heap_4.o
    0x080084b4   0x080084b4   0x0000001a   Code   RO         4786    i.prvIsQueueEmpty   queue.o
    0x080084ce   0x080084ce   0x0000001e   Code   RO         4787    i.prvIsQueueFull    queue.o
    0x080084ec   0x080084ec   0x00000034   Code   RO         4447    i.prvResetNextTaskUnblockTime  tasks.o
    0x08008520   0x08008520   0x00000040   Code   RO         5032    i.prvTaskExitError  port.o
    0x08008560   0x08008560   0x0000007e   Code   RO         4788    i.prvUnlockQueue    queue.o
    0x080085de   0x080085de   0x00000002   PAD
    0x080085e0   0x080085e0   0x0000013c   Code   RO         4971    i.pvPortMalloc      heap_4.o
    0x0800871c   0x0800871c   0x00000020   Code   RO         4450    i.pvTaskIncrementMutexHeldCount  tasks.o
    0x0800873c   0x0800873c   0x0000002c   Code   RO         5033    i.pxPortInitialiseStack  port.o
    0x08008768   0x08008768   0x0000006c   Code   RO         5424    i.realloc           mc_w.l(mallocr.o)
    0x080087d4   0x080087d4   0x0000006e   Code   RO         5496    i.sqrt              m_wm.l(sqrt.o)
    0x08008842   0x08008842   0x00000006   PAD
    0x08008848   0x08008848   0x00000030   Code   RO         5123    i.strtod            m_wm.l(strtod.o)
    0x08008878   0x08008878   0x000003e8   Code   RO         4247    i.task1_func        main.o
    0x08008c60   0x08008c60   0x0000004c   Code   RO         4248    i.task2_func        main.o
    0x08008cac   0x08008cac   0x00000058   Code   RO         4249    i.task3_func        main.o
    0x08008d04   0x08008d04   0x00000024   Code   RO         2792    i.update_offset     cjson.o
    0x08008d28   0x08008d28   0x0000012c   Code   RO         2793    i.utf16_literal_to_utf8  cjson.o
    0x08008e54   0x08008e54   0x00000028   Code   RO         4391    i.uxListRemove      list.o
    0x08008e7c   0x08008e7c   0x0000001a   Code   RO         4392    i.vListInitialise   list.o
    0x08008e96   0x08008e96   0x00000006   Code   RO         4393    i.vListInitialiseItem  list.o
    0x08008e9c   0x08008e9c   0x00000034   Code   RO         4394    i.vListInsert       list.o
    0x08008ed0   0x08008ed0   0x00000018   Code   RO         4395    i.vListInsertEnd    list.o
    0x08008ee8   0x08008ee8   0x00000054   Code   RO         5035    i.vPortEnterCritical  port.o
    0x08008f3c   0x08008f3c   0x0000003c   Code   RO         5036    i.vPortExitCritical  port.o
    0x08008f78   0x08008f78   0x00000094   Code   RO         4972    i.vPortFree         heap_4.o
    0x0800900c   0x0800900c   0x00000020   Code   RO         5037    i.vPortSetupTimerInterrupt  port.o
    0x0800902c   0x0800902c   0x0000005c   Code   RO         4458    i.vTaskDelay        tasks.o
    0x08009088   0x08009088   0x0000000c   Code   RO         4463    i.vTaskMissedYield  tasks.o
    0x08009094   0x08009094   0x00000038   Code   RO         4465    i.vTaskPlaceOnEventList  tasks.o
    0x080090cc   0x080090cc   0x000000b0   Code   RO         4467    i.vTaskPriorityInherit  tasks.o
    0x0800917c   0x0800917c   0x00000030   Code   RO         4471    i.vTaskSetTimeOutState  tasks.o
    0x080091ac   0x080091ac   0x00000088   Code   RO         4472    i.vTaskStartScheduler  tasks.o
    0x08009234   0x08009234   0x00000010   Code   RO         4474    i.vTaskSuspendAll   tasks.o
    0x08009244   0x08009244   0x0000008c   Code   RO         4475    i.vTaskSwitchContext  tasks.o
    0x080092d0   0x080092d0   0x0000013c   Code   RO         5039    i.xPortStartScheduler  port.o
    0x0800940c   0x0800940c   0x00000022   Code   RO         4799    i.xQueueCreateMutex  queue.o
    0x0800942e   0x0800942e   0x00000058   Code   RO         4800    i.xQueueGenericCreate  queue.o
    0x08009486   0x08009486   0x00000002   PAD
    0x08009488   0x08009488   0x0000019c   Code   RO         4801    i.xQueueGenericReceive  queue.o
    0x08009624   0x08009624   0x00000098   Code   RO         4802    i.xQueueGenericReset  queue.o
    0x080096bc   0x080096bc   0x00000180   Code   RO         4803    i.xQueueGenericSend  queue.o
    0x0800983c   0x0800983c   0x0000008c   Code   RO         4476    i.xTaskCheckForTimeOut  tasks.o
    0x080098c8   0x080098c8   0x00000060   Code   RO         4477    i.xTaskCreate       tasks.o
    0x08009928   0x08009928   0x00000148   Code   RO         4483    i.xTaskIncrementTick  tasks.o
    0x08009a70   0x08009a70   0x000000c8   Code   RO         4486    i.xTaskPriorityDisinherit  tasks.o
    0x08009b38   0x08009b38   0x00000098   Code   RO         4487    i.xTaskRemoveFromEventList  tasks.o
    0x08009bd0   0x08009bd0   0x00000104   Code   RO         4489    i.xTaskResumeAll    tasks.o
    0x08009cd4   0x08009cd4   0x00000738   Data   RO         3724    .constdata          oled.o
    0x0800a40c   0x0800a40c   0x00000004   PAD
    0x0800a410   0x0800a410   0x00000088   Data   RO         5110    .constdata          m_wm.l(pow.o)
    0x0800a498   0x0800a498   0x00000008   Data   RO         5493    .constdata          m_wm.l(qnan.o)
    0x0800a4a0   0x0800a4a0   0x00000038   Data   RO         5530    .constdata          mc_w.l(ilconv.o)
    0x0800a4d8   0x0800a4d8   0x00000081   Data   RO         5575    .constdata          mc_w.l(ctype_o.o)
    0x0800a559   0x0800a559   0x00000003   PAD
    0x0800a55c   0x0800a55c   0x00000004   Data   RO         5576    .constdata          mc_w.l(ctype_o.o)
    0x0800a560   0x0800a560   0x0000024a   Data   RO         3607    .conststring        mqtt.o
    0x0800a7aa   0x0800a7aa   0x00000002   PAD
    0x0800a7ac   0x0800a7ac   0x000000d5   Data   RO         4164    .conststring        nettime.o
    0x0800a881   0x0800a881   0x00000003   PAD
    0x0800a884   0x0800a884   0x00000005   Data   RO         5531    .conststring        mc_w.l(ilconv.o)
    0x0800a889   0x0800a889   0x00000003   PAD
    0x0800a88c   0x0800a88c   0x00000020   Data   RO         5615    Region$$Table       anon$$obj.o


    Execution Region RW_IRAM1 (Exec base: 0x20000000, Load base: 0x0800a8ac, Size: 0x00014638, Max: 0x00020000, ABSOLUTE, COMPRESSED[0x000001cc])

    Exec Addr    Load Addr    Size         Type   Attr      Idx    E Section Name        Object

    0x20000000   COMPRESSED   0x00000010   Data   RW          214    .data               stm32f4xx_rcc.o
    0x20000010   COMPRESSED   0x00000005   Data   RW         2633    .data               adc.o
    0x20000015   COMPRESSED   0x00000003   PAD
    0x20000018   COMPRESSED   0x00000014   Data   RW         2795    .data               cjson.o
    0x2000002c   COMPRESSED   0x00000004   Data   RW         3294    .data               esp8266.o
    0x20000030   COMPRESSED   0x00000008   Data   RW         3543    .data               motor.o
    0x20000038   COMPRESSED   0x00000004   Data   RW         3608    .data               mqtt.o
    0x2000003c   COMPRESSED   0x0000000c   Data   RW         3828    .data               rtc.o
    0x20000048   COMPRESSED   0x00000005   Data   RW         3895    .data               usart.o
    0x2000004d   COMPRESSED   0x00000003   PAD
    0x20000050   COMPRESSED   0x00000014   Data   RW         3961    .data               usart2.o
    0x20000064   COMPRESSED   0x00000006   Data   RW         4165    .data               nettime.o
    0x2000006a   COMPRESSED   0x00000002   PAD
    0x2000006c   COMPRESSED   0x00000014   Data   RW         4212    .data               system_stm32f4xx.o
    0x20000080   COMPRESSED   0x00000450   Data   RW         4250    .data               main.o
    0x200004d0   COMPRESSED   0x0000003c   Data   RW         4492    .data               tasks.o
    0x2000050c   COMPRESSED   0x00000018   Data   RW         4977    .data               heap_4.o
    0x20000524   COMPRESSED   0x0000000c   Data   RW         5040    .data               port.o
    0x20000530   COMPRESSED   0x00000004   Data   RW         5532    .data               mc_w.l(mvars.o)
    0x20000534   COMPRESSED   0x00000004   Data   RW         5533    .data               mc_w.l(mvars.o)
    0x20000538   COMPRESSED   0x00000004   Data   RW         5537    .data               mc_w.l(errno.o)
    0x2000053c        -       0x00000020   Zero   RW         3542    .bss                motor.o
    0x2000055c        -       0x0000020e   Zero   RW         3605    .bss                mqtt.o
    0x2000076a        -       0x00000100   Zero   RW         3894    .bss                usart.o
    0x2000086a        -       0x00000500   Zero   RW         3960    .bss                usart2.o
    0x20000d6a   COMPRESSED   0x00000002   PAD
    0x20000d6c        -       0x000000c8   Zero   RW         4491    .bss                tasks.o
    0x20000e34        -       0x00012c00   Zero   RW         4976    .bss                heap_4.o
    0x20013a34   COMPRESSED   0x00000004   PAD
    0x20013a38        -       0x00000800   Zero   RW            2    HEAP                startup_stm32f40_41xxx.o
    0x20014238        -       0x00000400   Zero   RW            1    STACK               startup_stm32f40_41xxx.o


==============================================================================

Image component sizes


      Code (inc. data)   RO Data    RW Data    ZI Data      Debug   Object Name

       846         60          0          5          0       7302   adc.o
      4534        154          0         20          0      30932   cjson.o
       114          0          0          0          0       1106   delay.o
      1588        652          0          4          0      10331   esp8266.o
       692         62          0         24      76800       7235   heap_4.o
       496         34          0          0          0       4034   i2c.o
       188         14          0          0          0       1726   led.o
       148          0          0          0          0       3706   list.o
      1408        346          0       1104          0      18452   main.o
       120         14          0          0          0     314360   misc.o
       652         38          0          8         32       3406   motor.o
      3444       1364        586          4        526      13044   mqtt.o
      1864       1028        213          6          0       7591   nettime.o
       814         14       1848          0          0      10528   oled.o
       834         78          0         12          0      10868   port.o
      1488         16          0          0          0      12314   queue.o
       400         16          0         12          0       2457   rtc.o
        36          8        392          0       3072        904   startup_stm32f40_41xxx.o
       374         24          0          0          0       6098   stm32f4xx_adc.o
       160         12          0          0          0       1785   stm32f4xx_exti.o
       240          0          0          0          0       3967   stm32f4xx_gpio.o
        20          0          0          0          0       2985   stm32f4xx_it.o
        12          6          0          0          0        586   stm32f4xx_pwr.o
       508         60          0         16          0       7602   stm32f4xx_rcc.o
      1302         88          0          0          0      12091   stm32f4xx_rtc.o
       334         38          0          0          0       4127   stm32f4xx_tim.o
       486          8          0          0          0       7369   stm32f4xx_usart.o
       340         32          0         20          0       2121   system_stm32f4xx.o
      2714        348          0         60        200      29894   tasks.o
       776        122          0          5        256       4509   usart.o
       662         50          0         20       1280       7819   usart2.o
        60          6          0          0          0        578   ws2812.o

    ----------------------------------------------------------------------
     27686       4692       3080       1328      82172     551827   Object Totals
         0          0         32          0          0          0   (incl. Generated)
        32          0          9          8          6          0   (incl. Padding)

    ----------------------------------------------------------------------

      Code (inc. data)   RO Data    RW Data    ZI Data      Debug   Library Member Name

       164         44          0          0          0        620   dunder.o
        24          0          0          0          0        124   fabs.o
        48          0          0          0          0        124   fpclassify.o
       248          0          0          0          0        152   poly.o
      3152        296        136          0          0        352   pow.o
         0          0          8          0          0          0   qnan.o
       110          0          0          0          0        148   sqrt.o
        48         14          0          0          0        128   strtod.o
        86          0          0          0          0          0   __dczerorl2.o
        28          0          0          0          0         68   _chval.o
       812          4          0          0          0        112   _scanf.o
       332          0          0          0          0         96   _scanf_int.o
       342          0          0          0          0        100   _scanf_longlong.o
       224          0          0          0          0         96   _scanf_str.o
        64          0          0          0          0         84   _sgetc.o
       158          0          0          0          0         92   _strtoul.o
        26          0          0          0          0         80   atoi.o
         8          4        133          0          0         68   ctype_o.o
         0          0          0          0          0          0   entry.o
         0          0          0          0          0          0   entry10a.o
         0          0          0          0          0          0   entry11a.o
         8          4          0          0          0          0   entry2.o
         4          0          0          0          0          0   entry5.o
         0          0          0          0          0          0   entry7b.o
         0          0          0          0          0          0   entry8b.o
         8          4          0          0          0          0   entry9a.o
        20         10          0          4          0        136   errno.o
        30          0          0          0          0          0   handlers.o
         0          0         61          0          0          0   ilconv.o
        36          8          0          0          0         68   init.o
        18          0          0          0          0         76   isspace_o.o
         0          0          0          0          0          0   iusefp.o
        30          0          0          0          0         68   llshl.o
        36          0          0          0          0         68   llsshr.o
        32          0          0          0          0         68   llushr.o
         8          4          0          0          0         68   localeconv.o
       360         30          0          0          0        356   mallocr.o
        40          0          0          0          0         76   memcpy.o
        36          0          0          0          0        108   memseta.o
         0          0          0          8          0          0   mvars.o
      2308         96          0          0          0        604   printfa.o
        40          8          0          0          0         84   scanf_char.o
       878         12          0          0          0        216   scanf_fp.o
        56          8          0          0          0         84   sscanf.o
        28          0          0          0          0         76   strcmp.o
        18          0          0          0          0         68   strcpy.o
        14          0          0          0          0         68   strlen.o
        30          0          0          0          0         80   strncmp.o
        36          0          0          0          0         80   strstr.o
       156         12          0          0          0        120   strtod.o
       112          0          0          0          0         88   strtol.o
        12          0          0          0          0         68   tolower.o
        44          0          0          0          0         80   uidiv.o
        98          0          0          0          0         92   uldiv.o
        48          0          0          0          0         68   cdcmple.o
        48          0          0          0          0         68   cdrcmple.o
        56          0          0          0          0         88   d2f.o
       334          0          0          0          0        148   dadd.o
       222          0          0          0          0        100   ddiv.o
       186          0          0          0          0        176   depilogue.o
        62          0          0          0          0         80   dfixi.o
        48          0          0          0          0         68   dfixul.o
        34          0          0          0          0         76   dflti.o
        26          0          0          0          0         76   dfltui.o
        24          0          0          0          0         76   dfltul.o
       228          0          0          0          0         96   dmul.o
        46          0          0          0          0         80   dscalb.o
       162          0          0          0          0        100   dsqrt.o
        38          0          0          0          0         68   f2d.o
       110          0          0          0          0        168   fepilogue.o

    ----------------------------------------------------------------------
     12070        562        344         12          0       6880   Library Totals
        28          4          6          0          0          0   (incl. Padding)

    ----------------------------------------------------------------------

      Code (inc. data)   RO Data    RW Data    ZI Data      Debug   Library Name

      3794        354        144          0          0       1648   m_wm.l
      6576        204        194         12          0       3696   mc_w.l
      1672          0          0          0          0       1536   mf_w.l

    ----------------------------------------------------------------------
     12070        562        344         12          0       6880   Library Totals

    ----------------------------------------------------------------------

==============================================================================


      Code (inc. data)   RO Data    RW Data    ZI Data      Debug   

     39756       5254       3424       1340      82172     532479   Grand Totals
     39756       5254       3424        460      82172     532479   ELF Image Totals (compressed)
     39756       5254       3424        460          0          0   ROM Totals

==============================================================================

    Total RO  Size (Code + RO Data)                43180 (  42.17kB)
    Total RW  Size (RW Data + ZI Data)             83512 (  81.55kB)
    Total ROM Size (Code + RO Data + RW Data)      43640 (  42.62kB)

==============================================================================

